MSP430 Assembler PC v21.6.0 Sat Jan 22 14:19:11 2022

Copyright (c) 2003-2018 Texas Instruments Incorporated
C:\Users\d_oti\AppData\Local\Temp\{363B67F7-9DCD-452D-B47D-A969BDAED65D} PAGE    1

       1            ;******************************************************************************
       2            ;* MSP430 G3 C/C++ Codegen                                              PC v21.6.0.LTS *
       3            ;* Date/Time created: Sat Jan 22 14:19:11 2022                                *
       4            ;******************************************************************************
       5                    .compiler_opts --abi=eabi --diag_wrap=off --hll_source=on --mem_model:code=small --mem_model:d
       6            
       7            $C$DW$CU        .dwtag  DW_TAG_compile_unit
       8                    .dwattr $C$DW$CU, DW_AT_name("../DataSizes.c")
       9                    .dwattr $C$DW$CU, DW_AT_producer("TI MSP430 G3 C/C++ Codegen PC v21.6.0.LTS Copyright (c) 2003
      10                    .dwattr $C$DW$CU, DW_AT_TI_version(0x01)
      11                    .dwattr $C$DW$CU, DW_AT_comp_dir("C:\Users\d_oti\Desktop\CPE325\Otieno_Lab02_SP22_DataSizes\De
      12            $C$DW$1 .dwtag  DW_TAG_variable
      13                    .dwattr $C$DW$1, DW_AT_name("WDTCTL")
      14                    .dwattr $C$DW$1, DW_AT_TI_symbol_name("WDTCTL")
      15                    .dwattr $C$DW$1, DW_AT_type(*$C$DW$T$60)
      16                    .dwattr $C$DW$1, DW_AT_declaration
      17                    .dwattr $C$DW$1, DW_AT_external
      18                    .dwattr $C$DW$1, DW_AT_decl_file("C:\ti\ccs1110\ccs\ccs_base\msp430\include\msp430f5529.h")
      19                    .dwattr $C$DW$1, DW_AT_decl_line(0x1232)
      20                    .dwattr $C$DW$1, DW_AT_decl_column(0x01)
      21            
      22            
      23            $C$DW$2 .dwtag  DW_TAG_subprogram
      24                    .dwattr $C$DW$2, DW_AT_name("printf")
      25                    .dwattr $C$DW$2, DW_AT_TI_symbol_name("printf")
      26                    .dwattr $C$DW$2, DW_AT_type(*$C$DW$T$10)
      27                    .dwattr $C$DW$2, DW_AT_declaration
      28                    .dwattr $C$DW$2, DW_AT_external
      29                    .dwattr $C$DW$2, DW_AT_decl_file("C:/ti/ccs1110/ccs/tools/compiler/ti-cgt-msp430_21.6.0.LTS/in
      30                    .dwattr $C$DW$2, DW_AT_decl_line(0x100)
      31                    .dwattr $C$DW$2, DW_AT_decl_column(0x19)
      32            $C$DW$3 .dwtag  DW_TAG_formal_parameter
      33                    .dwattr $C$DW$3, DW_AT_type(*$C$DW$T$39)
      34            
      35            $C$DW$4 .dwtag  DW_TAG_unspecified_parameters
      36            
      37                    .dwendtag $C$DW$2
      38            
      39            ;       C:\ti\ccs1110\ccs\tools\compiler\ti-cgt-msp430_21.6.0.LTS\bin\acpia430.exe -@C:\\Users\\d_oti\
      40 000000               .sect   ".text:main"
      41                    .clink
      42                    .global main
      43            
      44            $C$DW$5 .dwtag  DW_TAG_subprogram
      45                    .dwattr $C$DW$5, DW_AT_name("main")
      46                    .dwattr $C$DW$5, DW_AT_low_pc(main)
      47                    .dwattr $C$DW$5, DW_AT_high_pc(0x00)
      48                    .dwattr $C$DW$5, DW_AT_TI_symbol_name("main")
      49                    .dwattr $C$DW$5, DW_AT_external
      50                    .dwattr $C$DW$5, DW_AT_type(*$C$DW$T$10)
      51                    .dwattr $C$DW$5, DW_AT_TI_begin_file("../DataSizes.c")
      52                    .dwattr $C$DW$5, DW_AT_TI_begin_line(0x12)
      53                    .dwattr $C$DW$5, DW_AT_TI_begin_column(0x05)
      54                    .dwattr $C$DW$5, DW_AT_decl_file("../DataSizes.c")
      55                    .dwattr $C$DW$5, DW_AT_decl_line(0x12)
MSP430 Assembler PC v21.6.0 Sat Jan 22 14:19:11 2022

Copyright (c) 2003-2018 Texas Instruments Incorporated
C:\Users\d_oti\AppData\Local\Temp\{363B67F7-9DCD-452D-B47D-A969BDAED65D} PAGE    2

      56                    .dwattr $C$DW$5, DW_AT_decl_column(0x05)
      57                    .dwattr $C$DW$5, DW_AT_TI_max_frame_size(0x1a)
      58                    .dwpsn  file "../DataSizes.c",line 19,column 1,is_stmt,address main,isa 0
      59            
      60                    .dwfde $C$DW$CIE, main
      61            
      62            ;*****************************************************************************
      63            ;* FUNCTION NAME: main                                                       *
      64            ;*                                                                           *
      65            ;*   Regs Modified     : SP,SR,r11,r12,r13,r14,r15                           *
      66            ;*   Regs Used         : SP,SR,r11,r12,r13,r14,r15                           *
      67            ;*   Local Frame Size  : 22 Args + 2 Auto + 0 Save = 24 byte                 *
      68            ;*****************************************************************************
      69 000000       main:
      70            ;* --------------------------------------------------------------------------*
      71                    .dwcfi  cfa_offset, 2
      72                    .dwcfi  save_reg_to_mem, 16, -2
      73 000000 8031          SUB.W     #24,SP                ; [] 
         000002 0018 
      74                    .dwcfi  cfa_offset, 26
      75            $C$DW$6 .dwtag  DW_TAG_variable
      76                    .dwattr $C$DW$6, DW_AT_name("dash")
      77                    .dwattr $C$DW$6, DW_AT_TI_symbol_name("dash")
      78                    .dwattr $C$DW$6, DW_AT_type(*$C$DW$T$6)
      79                    .dwattr $C$DW$6, DW_AT_location[DW_OP_breg1 22]
      80            
      81                    .dwpsn  file "../DataSizes.c",line 20,column 2,is_stmt,isa 0
      82 000004 40B2          MOV.W     #23168,&WDTCTL+0      ; [] |20| 
         000006 5A80 
         000008 0000!
      83                    .dwpsn  file "../DataSizes.c",line 23,column 12,is_stmt,isa 0
      84 00000a 40F1          MOV.B     #45,22(SP)            ; [] |23| 
         00000c 002D 
         00000e 0016 
      85                    .dwpsn  file "../DataSizes.c",line 36,column 2,is_stmt,isa 0
      86 000010 415C          MOV.B     22(SP),r12            ; [] |36| 
         000012 0016 
      87 000014 403D          MOV.W     #92,r13               ; [] |36| 
         000016 005C 
      88            $C$DW$7 .dwtag  DW_TAG_TI_branch
      89                    .dwattr $C$DW$7, DW_AT_low_pc(0x00)
      90                    .dwattr $C$DW$7, DW_AT_name("hyphens")
      91                    .dwattr $C$DW$7, DW_AT_TI_call
      92            
      93 000018 12B0          CALL      #hyphens              ; [] |36| 
         00001a 0000!
      94                                                      ; [] |36| 
      95                    .dwpsn  file "../DataSizes.c",line 37,column 2,is_stmt,isa 0
      96 00001c 40B1          MOV.W     #$C$SL1+0,0(SP)       ; [] |37| 
         00001e 0000!
         000020 0000 
      97 000022 40B1          MOV.W     #$C$SL2+0,2(SP)       ; [] |37| 
         000024 0000!
         000026 0002 
      98 000028 40B1          MOV.W     #$C$SL3+0,4(SP)       ; [] |37| 
MSP430 Assembler PC v21.6.0 Sat Jan 22 14:19:11 2022

Copyright (c) 2003-2018 Texas Instruments Incorporated
C:\Users\d_oti\AppData\Local\Temp\{363B67F7-9DCD-452D-B47D-A969BDAED65D} PAGE    3

         00002a 0000!
         00002c 0004 
      99 00002e 40B1          MOV.W     #$C$SL4+0,6(SP)       ; [] |37| 
         000030 0000!
         000032 0006 
     100 000034 40B1          MOV.W     #$C$SL5+0,8(SP)       ; [] |37| 
         000036 0000!
         000038 0008 
     101            $C$DW$8 .dwtag  DW_TAG_TI_branch
     102                    .dwattr $C$DW$8, DW_AT_low_pc(0x00)
     103                    .dwattr $C$DW$8, DW_AT_name("printf")
     104                    .dwattr $C$DW$8, DW_AT_TI_call
     105            
     106 00003a 12B0          CALL      #printf               ; [] |37| 
         00003c 0000!
     107                                                      ; [] |37| 
     108                    .dwpsn  file "../DataSizes.c",line 38,column 2,is_stmt,isa 0
     109 00003e 415C          MOV.B     22(SP),r12            ; [] |38| 
         000040 0016 
     110 000042 403D          MOV.W     #92,r13               ; [] |38| 
         000044 005C 
     111            $C$DW$9 .dwtag  DW_TAG_TI_branch
     112                    .dwattr $C$DW$9, DW_AT_low_pc(0x00)
     113                    .dwattr $C$DW$9, DW_AT_name("hyphens")
     114                    .dwattr $C$DW$9, DW_AT_TI_call
     115            
     116 000046 12B0          CALL      #hyphens              ; [] |38| 
         000048 0000!
     117                                                      ; [] |38| 
     118                    .dwpsn  file "../DataSizes.c",line 40,column 2,is_stmt,isa 0
     119 00004a 40B1          MOV.W     #$C$SL6+0,0(SP)       ; [] |40| 
         00004c 0000!
         00004e 0000 
     120 000050 40B1          MOV.W     #$C$SL7+0,2(SP)       ; [] |40| 
         000052 0000!
         000054 0002 
     121 000056 4391          MOV.W     #1,4(SP)              ; [] |40| 
         000058 0004 
     122 00005a 40B1          MOV.W     #65408,6(SP)          ; [] |40| 
         00005c FF80 
         00005e 0006 
     123 000060 40B1          MOV.W     #127,8(SP)            ; [] |40| 
         000062 007F 
         000064 0008 
     124            $C$DW$10        .dwtag  DW_TAG_TI_branch
     125                    .dwattr $C$DW$10, DW_AT_low_pc(0x00)
     126                    .dwattr $C$DW$10, DW_AT_name("printf")
     127                    .dwattr $C$DW$10, DW_AT_TI_call
     128            
     129 000066 12B0          CALL      #printf               ; [] |40| 
         000068 0000!
     130                                                      ; [] |40| 
     131                    .dwpsn  file "../DataSizes.c",line 42,column 2,is_stmt,isa 0
     132 00006a 40B1          MOV.W     #$C$SL6+0,0(SP)       ; [] |42| 
         00006c 0000!
MSP430 Assembler PC v21.6.0 Sat Jan 22 14:19:11 2022

Copyright (c) 2003-2018 Texas Instruments Incorporated
C:\Users\d_oti\AppData\Local\Temp\{363B67F7-9DCD-452D-B47D-A969BDAED65D} PAGE    4

         00006e 0000 
     133 000070 40B1          MOV.W     #$C$SL8+0,2(SP)       ; [] |42| 
         000072 0000!
         000074 0002 
     134 000076 4391          MOV.W     #1,4(SP)              ; [] |42| 
         000078 0004 
     135 00007a 4381          MOV.W     #0,6(SP)              ; [] |42| 
         00007c 0006 
     136 00007e 40B1          MOV.W     #255,8(SP)            ; [] |42| 
         000080 00FF 
         000082 0008 
     137            $C$DW$11        .dwtag  DW_TAG_TI_branch
     138                    .dwattr $C$DW$11, DW_AT_low_pc(0x00)
     139                    .dwattr $C$DW$11, DW_AT_name("printf")
     140                    .dwattr $C$DW$11, DW_AT_TI_call
     141            
     142 000084 12B0          CALL      #printf               ; [] |42| 
         000086 0000!
     143                                                      ; [] |42| 
     144                    .dwpsn  file "../DataSizes.c",line 44,column 2,is_stmt,isa 0
     145 000088 40B1          MOV.W     #$C$SL6+0,0(SP)       ; [] |44| 
         00008a 0000!
         00008c 0000 
     146 00008e 40B1          MOV.W     #$C$SL9+0,2(SP)       ; [] |44| 
         000090 0000!
         000092 0002 
     147 000094 43A1          MOV.W     #2,4(SP)              ; [] |44| 
         000096 0004 
     148 000098 40B1          MOV.W     #32768,6(SP)          ; [] |44| 
         00009a 8000 
         00009c 0006 
     149 00009e 40B1          MOV.W     #32767,8(SP)          ; [] |44| 
         0000a0 7FFF 
         0000a2 0008 
     150            $C$DW$12        .dwtag  DW_TAG_TI_branch
     151                    .dwattr $C$DW$12, DW_AT_low_pc(0x00)
     152                    .dwattr $C$DW$12, DW_AT_name("printf")
     153                    .dwattr $C$DW$12, DW_AT_TI_call
     154            
     155 0000a4 12B0          CALL      #printf               ; [] |44| 
         0000a6 0000!
     156                                                      ; [] |44| 
     157                    .dwpsn  file "../DataSizes.c",line 46,column 2,is_stmt,isa 0
     158 0000a8 40B1          MOV.W     #$C$SL10+0,0(SP)      ; [] |46| 
         0000aa 0000!
         0000ac 0000 
     159 0000ae 40B1          MOV.W     #$C$SL11+0,2(SP)      ; [] |46| 
         0000b0 0000!
         0000b2 0002 
     160 0000b4 43A1          MOV.W     #2,4(SP)              ; [] |46| 
         0000b6 0004 
     161 0000b8 4381          MOV.W     #0,6(SP)              ; [] |46| 
         0000ba 0006 
     162 0000bc 43B1          MOV.W     #65535,8(SP)          ; [] |46| 
         0000be 0008 
MSP430 Assembler PC v21.6.0 Sat Jan 22 14:19:11 2022

Copyright (c) 2003-2018 Texas Instruments Incorporated
C:\Users\d_oti\AppData\Local\Temp\{363B67F7-9DCD-452D-B47D-A969BDAED65D} PAGE    5

     163            $C$DW$13        .dwtag  DW_TAG_TI_branch
     164                    .dwattr $C$DW$13, DW_AT_low_pc(0x00)
     165                    .dwattr $C$DW$13, DW_AT_name("printf")
     166                    .dwattr $C$DW$13, DW_AT_TI_call
     167            
     168 0000c0 12B0          CALL      #printf               ; [] |46| 
         0000c2 0000!
     169                                                      ; [] |46| 
     170                    .dwpsn  file "../DataSizes.c",line 48,column 2,is_stmt,isa 0
     171 0000c4 40B1          MOV.W     #$C$SL6+0,0(SP)       ; [] |48| 
         0000c6 0000!
         0000c8 0000 
     172 0000ca 40B1          MOV.W     #$C$SL12+0,2(SP)      ; [] |48| 
         0000cc 0000!
         0000ce 0002 
     173 0000d0 43A1          MOV.W     #2,4(SP)              ; [] |48| 
         0000d2 0004 
     174 0000d4 40B1          MOV.W     #32768,6(SP)          ; [] |48| 
         0000d6 8000 
         0000d8 0006 
     175 0000da 40B1          MOV.W     #32767,8(SP)          ; [] |48| 
         0000dc 7FFF 
         0000de 0008 
     176            $C$DW$14        .dwtag  DW_TAG_TI_branch
     177                    .dwattr $C$DW$14, DW_AT_low_pc(0x00)
     178                    .dwattr $C$DW$14, DW_AT_name("printf")
     179                    .dwattr $C$DW$14, DW_AT_TI_call
     180            
     181 0000e0 12B0          CALL      #printf               ; [] |48| 
         0000e2 0000!
     182                                                      ; [] |48| 
     183            ;* --------------------------------------------------------------------------*
     184                    .dwpsn  file "../DataSizes.c",line 50,column 2,is_stmt,isa 0
     185 0000e4 40B1          MOV.W     #$C$SL13+0,0(SP)      ; [] |50| 
         0000e6 0000!
         0000e8 0000 
     186 0000ea 40B1          MOV.W     #$C$SL14+0,2(SP)      ; [] |50| 
         0000ec 0000!
         0000ee 0002 
     187 0000f0 43A1          MOV.W     #2,4(SP)              ; [] |50| 
         0000f2 0004 
     188 0000f4 4381          MOV.W     #0,6(SP)              ; [] |50| 
         0000f6 0006 
     189 0000f8 43B1          MOV.W     #65535,8(SP)          ; [] |50| 
         0000fa 0008 
     190            $C$DW$15        .dwtag  DW_TAG_TI_branch
     191                    .dwattr $C$DW$15, DW_AT_low_pc(0x00)
     192                    .dwattr $C$DW$15, DW_AT_name("printf")
     193                    .dwattr $C$DW$15, DW_AT_TI_call
     194            
     195 0000fc 12B0          CALL      #printf               ; [] |50| 
         0000fe 0000!
     196                                                      ; [] |50| 
     197                    .dwpsn  file "../DataSizes.c",line 52,column 2,is_stmt,isa 0
     198 000100 40B1          MOV.W     #$C$SL15+0,0(SP)      ; [] |52| 
MSP430 Assembler PC v21.6.0 Sat Jan 22 14:19:11 2022

Copyright (c) 2003-2018 Texas Instruments Incorporated
C:\Users\d_oti\AppData\Local\Temp\{363B67F7-9DCD-452D-B47D-A969BDAED65D} PAGE    6

         000102 0000!
         000104 0000 
     199 000106 40B1          MOV.W     #$C$SL16+0,2(SP)      ; [] |52| 
         000108 0000!
         00010a 0002 
     200 00010c 42A1          MOV.W     #4,4(SP)              ; [] |52| 
         00010e 0004 
     201 000110 4381          MOV.W     #0,6(SP)              ; [] |52| 
         000112 0006 
     202 000114 40B1          MOV.W     #32768,8(SP)          ; [] |52| 
         000116 8000 
         000118 0008 
     203 00011a 43B1          MOV.W     #65535,10(SP)         ; [] |52| 
         00011c 000A 
     204 00011e 40B1          MOV.W     #32767,12(SP)         ; [] |52| 
         000120 7FFF 
         000122 000C 
     205            $C$DW$16        .dwtag  DW_TAG_TI_branch
     206                    .dwattr $C$DW$16, DW_AT_low_pc(0x00)
     207                    .dwattr $C$DW$16, DW_AT_name("printf")
     208                    .dwattr $C$DW$16, DW_AT_TI_call
     209            
     210 000124 12B0          CALL      #printf               ; [] |52| 
         000126 0000!
     211                                                      ; [] |52| 
     212                    .dwpsn  file "../DataSizes.c",line 54,column 2,is_stmt,isa 0
     213 000128 40B1          MOV.W     #$C$SL17+0,0(SP)      ; [] |54| 
         00012a 0000!
         00012c 0000 
     214 00012e 40B1          MOV.W     #$C$SL18+0,2(SP)      ; [] |54| 
         000130 0000!
         000132 0002 
     215 000134 42A1          MOV.W     #4,4(SP)              ; [] |54| 
         000136 0004 
     216 000138 4381          MOV.W     #0,6(SP)              ; [] |54| 
         00013a 0006 
     217 00013c 43B1          MOV.W     #65535,8(SP)          ; [] |54| 
         00013e 0008 
     218 000140 43B1          MOV.W     #65535,10(SP)         ; [] |54| 
         000142 000A 
     219            $C$DW$17        .dwtag  DW_TAG_TI_branch
     220                    .dwattr $C$DW$17, DW_AT_low_pc(0x00)
     221                    .dwattr $C$DW$17, DW_AT_name("printf")
     222                    .dwattr $C$DW$17, DW_AT_TI_call
     223            
     224 000144 12B0          CALL      #printf               ; [] |54| 
         000146 0000!
     225                                                      ; [] |54| 
     226                    .dwpsn  file "../DataSizes.c",line 56,column 2,is_stmt,isa 0
     227 000148 40B1          MOV.W     #$C$SL19+0,0(SP)      ; [] |56| 
         00014a 0000!
         00014c 0000 
     228 00014e 40B1          MOV.W     #$C$SL20+0,2(SP)      ; [] |56| 
         000150 0000!
         000152 0002 
MSP430 Assembler PC v21.6.0 Sat Jan 22 14:19:11 2022

Copyright (c) 2003-2018 Texas Instruments Incorporated
C:\Users\d_oti\AppData\Local\Temp\{363B67F7-9DCD-452D-B47D-A969BDAED65D} PAGE    7

     229 000154 42B1          MOV.W     #8,4(SP)              ; [] |56| 
         000156 0004 
     230 000158 4381          MOV.W     #0,6(SP)              ; [] |56| 
         00015a 0006 
     231 00015c 4381          MOV.W     #0,8(SP)              ; [] |56| 
         00015e 0008 
     232 000160 4381          MOV.W     #0,10(SP)             ; [] |56| 
         000162 000A 
     233 000164 40B1          MOV.W     #32768,12(SP)         ; [] |56| 
         000166 8000 
         000168 000C 
     234 00016a 43B1          MOV.W     #65535,14(SP)         ; [] |56| 
         00016c 000E 
     235 00016e 43B1          MOV.W     #65535,16(SP)         ; [] |56| 
         000170 0010 
     236 000172 43B1          MOV.W     #65535,18(SP)         ; [] |56| 
         000174 0012 
     237 000176 40B1          MOV.W     #32767,20(SP)         ; [] |56| 
         000178 7FFF 
         00017a 0014 
     238            $C$DW$18        .dwtag  DW_TAG_TI_branch
     239                    .dwattr $C$DW$18, DW_AT_low_pc(0x00)
     240                    .dwattr $C$DW$18, DW_AT_name("printf")
     241                    .dwattr $C$DW$18, DW_AT_TI_call
     242            
     243 00017c 12B0          CALL      #printf               ; [] |56| 
         00017e 0000!
     244                                                      ; [] |56| 
     245                    .dwpsn  file "../DataSizes.c",line 58,column 2,is_stmt,isa 0
     246 000180 40B1          MOV.W     #$C$SL21+0,0(SP)      ; [] |58| 
         000182 0000!
         000184 0000 
     247 000186 40B1          MOV.W     #$C$SL22+0,2(SP)      ; [] |58| 
         000188 0000!
         00018a 0002 
     248 00018c 42B1          MOV.W     #8,4(SP)              ; [] |58| 
         00018e 0004 
     249 000190 4381          MOV.W     #0,6(SP)              ; [] |58| 
         000192 0006 
     250 000194 43B1          MOV.W     #-1,8(SP)             ; [] |58| 
         000196 0008 
     251 000198 43B1          MOV.W     #-1,10(SP)            ; [] |58| 
         00019a 000A 
     252 00019c 43B1          MOV.W     #-1,12(SP)            ; [] |58| 
         00019e 000C 
     253 0001a0 43B1          MOV.W     #-1,14(SP)            ; [] |58| 
         0001a2 000E 
     254            $C$DW$19        .dwtag  DW_TAG_TI_branch
     255                    .dwattr $C$DW$19, DW_AT_low_pc(0x00)
     256                    .dwattr $C$DW$19, DW_AT_name("printf")
     257                    .dwattr $C$DW$19, DW_AT_TI_call
     258            
     259 0001a4 12B0          CALL      #printf               ; [] |58| 
         0001a6 0000!
     260                                                      ; [] |58| 
MSP430 Assembler PC v21.6.0 Sat Jan 22 14:19:11 2022

Copyright (c) 2003-2018 Texas Instruments Incorporated
C:\Users\d_oti\AppData\Local\Temp\{363B67F7-9DCD-452D-B47D-A969BDAED65D} PAGE    8

     261                    .dwpsn  file "../DataSizes.c",line 60,column 2,is_stmt,isa 0
     262 0001a8 40B1          MOV.W     #$C$SL23+0,0(SP)      ; [] |60| 
         0001aa 0000!
         0001ac 0000 
     263 0001ae 40B1          MOV.W     #$C$SL24+0,2(SP)      ; [] |60| 
         0001b0 0000!
         0001b2 0002 
     264 0001b4 42A1          MOV.W     #4,4(SP)              ; [] |60| 
         0001b6 0004 
     265 0001b8 4381          MOV.W     #0,6(SP)              ; [] |60| 
         0001ba 0006 
     266 0001bc 4381          MOV.W     #0,8(SP)              ; [] |60| 
         0001be 0008 
     267 0001c0 4381          MOV.W     #0,10(SP)             ; [] |60| 
         0001c2 000A 
     268 0001c4 40B1          MOV.W     #14352,12(SP)         ; [] |60| 
         0001c6 3810 
         0001c8 000C 
     269 0001ca 4381          MOV.W     #0,14(SP)             ; [] |60| 
         0001cc 000E 
     270 0001ce 40B1          MOV.W     #57344,16(SP)         ; [] |60| 
         0001d0 E000 
         0001d2 0010 
     271 0001d4 43B1          MOV.W     #65535,18(SP)         ; [] |60| 
         0001d6 0012 
     272 0001d8 40B1          MOV.W     #18415,20(SP)         ; [] |60| 
         0001da 47EF 
         0001dc 0014 
     273            $C$DW$20        .dwtag  DW_TAG_TI_branch
     274                    .dwattr $C$DW$20, DW_AT_low_pc(0x00)
     275                    .dwattr $C$DW$20, DW_AT_name("printf")
     276                    .dwattr $C$DW$20, DW_AT_TI_call
     277            
     278 0001de 12B0          CALL      #printf               ; [] |60| 
         0001e0 0000!
     279                                                      ; [] |60| 
     280                    .dwpsn  file "../DataSizes.c",line 62,column 2,is_stmt,isa 0
     281 0001e2 40B1          MOV.W     #$C$SL23+0,0(SP)      ; [] |62| 
         0001e4 0000!
         0001e6 0000 
     282 0001e8 40B1          MOV.W     #$C$SL25+0,2(SP)      ; [] |62| 
         0001ea 0000!
         0001ec 0002 
     283 0001ee 42B1          MOV.W     #8,4(SP)              ; [] |62| 
         0001f0 0004 
     284 0001f2 4381          MOV.W     #0,6(SP)              ; [] |62| 
         0001f4 0006 
     285 0001f6 4381          MOV.W     #0,8(SP)              ; [] |62| 
         0001f8 0008 
     286 0001fa 4381          MOV.W     #0,10(SP)             ; [] |62| 
         0001fc 000A 
     287 0001fe 40B1          MOV.W     #16,12(SP)            ; [] |62| 
         000200 0010 
         000202 000C 
     288 000204 43B1          MOV.W     #65535,14(SP)         ; [] |62| 
MSP430 Assembler PC v21.6.0 Sat Jan 22 14:19:11 2022

Copyright (c) 2003-2018 Texas Instruments Incorporated
C:\Users\d_oti\AppData\Local\Temp\{363B67F7-9DCD-452D-B47D-A969BDAED65D} PAGE    9

         000206 000E 
     289 000208 43B1          MOV.W     #65535,16(SP)         ; [] |62| 
         00020a 0010 
     290 00020c 43B1          MOV.W     #65535,18(SP)         ; [] |62| 
         00020e 0012 
     291 000210 40B1          MOV.W     #32751,20(SP)         ; [] |62| 
         000212 7FEF 
         000214 0014 
     292            $C$DW$21        .dwtag  DW_TAG_TI_branch
     293                    .dwattr $C$DW$21, DW_AT_low_pc(0x00)
     294                    .dwattr $C$DW$21, DW_AT_name("printf")
     295                    .dwattr $C$DW$21, DW_AT_TI_call
     296            
     297 000216 12B0          CALL      #printf               ; [] |62| 
         000218 0000!
     298                                                      ; [] |62| 
     299                    .dwpsn  file "../DataSizes.c",line 64,column 2,is_stmt,isa 0
     300 00021a 415C          MOV.B     22(SP),r12            ; [] |64| 
         00021c 0016 
     301 00021e 403D          MOV.W     #92,r13               ; [] |64| 
         000220 005C 
     302            $C$DW$22        .dwtag  DW_TAG_TI_branch
     303                    .dwattr $C$DW$22, DW_AT_low_pc(0x00)
     304                    .dwattr $C$DW$22, DW_AT_name("hyphens")
     305                    .dwattr $C$DW$22, DW_AT_TI_call
     306            
     307 000222 12B0          CALL      #hyphens              ; [] |64| 
         000224 0000!
     308                                                      ; [] |64| 
     309                    .dwpsn  file "../DataSizes.c",line 66,column 2,is_stmt,isa 0
     310 000226 430C          MOV.W     #0,r12                ; [] |66| 
     311                    .dwpsn  file "../DataSizes.c",line 67,column 1,is_stmt,isa 0
     312 000228 5031          ADD.W     #24,SP                ; [] 
         00022a 0018 
     313                    .dwcfi  cfa_offset, 2
     314            $C$DW$23        .dwtag  DW_TAG_TI_branch
     315                    .dwattr $C$DW$23, DW_AT_low_pc(0x00)
     316                    .dwattr $C$DW$23, DW_AT_TI_return
     317            
     318 00022c 4130          RET       ; [] 
     319                    ; [] 
     320                    .dwattr $C$DW$5, DW_AT_TI_end_file("../DataSizes.c")
     321                    .dwattr $C$DW$5, DW_AT_TI_end_line(0x43)
     322                    .dwattr $C$DW$5, DW_AT_TI_end_column(0x01)
     323                    .dwendentry
     324                    .dwendtag $C$DW$5
     325            
     326 000000               .sect   ".text:hyphens"
     327                    .clink
     328                    .global hyphens
     329            
     330            $C$DW$24        .dwtag  DW_TAG_subprogram
     331                    .dwattr $C$DW$24, DW_AT_name("hyphens")
     332                    .dwattr $C$DW$24, DW_AT_low_pc(hyphens)
     333                    .dwattr $C$DW$24, DW_AT_high_pc(0x00)
MSP430 Assembler PC v21.6.0 Sat Jan 22 14:19:11 2022

Copyright (c) 2003-2018 Texas Instruments Incorporated
C:\Users\d_oti\AppData\Local\Temp\{363B67F7-9DCD-452D-B47D-A969BDAED65D} PAGE   10

     334                    .dwattr $C$DW$24, DW_AT_TI_symbol_name("hyphens")
     335                    .dwattr $C$DW$24, DW_AT_external
     336                    .dwattr $C$DW$24, DW_AT_type(*$C$DW$T$10)
     337                    .dwattr $C$DW$24, DW_AT_TI_begin_file("../DataSizes.c")
     338                    .dwattr $C$DW$24, DW_AT_TI_begin_line(0x46)
     339                    .dwattr $C$DW$24, DW_AT_TI_begin_column(0x01)
     340                    .dwattr $C$DW$24, DW_AT_decl_file("../DataSizes.c")
     341                    .dwattr $C$DW$24, DW_AT_decl_line(0x46)
     342                    .dwattr $C$DW$24, DW_AT_decl_column(0x01)
     343                    .dwattr $C$DW$24, DW_AT_TI_max_frame_size(0x0c)
     344                    .dwpsn  file "../DataSizes.c",line 71,column 1,is_stmt,address hyphens,isa 0
     345            
     346                    .dwfde $C$DW$CIE, hyphens
     347            $C$DW$25        .dwtag  DW_TAG_formal_parameter
     348                    .dwattr $C$DW$25, DW_AT_name("dash")
     349                    .dwattr $C$DW$25, DW_AT_TI_symbol_name("dash")
     350                    .dwattr $C$DW$25, DW_AT_type(*$C$DW$T$6)
     351                    .dwattr $C$DW$25, DW_AT_location[DW_OP_reg12]
     352            
     353            $C$DW$26        .dwtag  DW_TAG_formal_parameter
     354                    .dwattr $C$DW$26, DW_AT_name("num")
     355                    .dwattr $C$DW$26, DW_AT_TI_symbol_name("num")
     356                    .dwattr $C$DW$26, DW_AT_type(*$C$DW$T$10)
     357                    .dwattr $C$DW$26, DW_AT_location[DW_OP_reg13]
     358            
     359            
     360            ;*****************************************************************************
     361            ;* FUNCTION NAME: hyphens                                                    *
     362            ;*                                                                           *
     363            ;*   Regs Modified     : SP,SR,r11,r12,r13,r14,r15                           *
     364            ;*   Regs Used         : SP,SR,r11,r12,r13,r14,r15                           *
     365            ;*   Local Frame Size  : 4 Args + 6 Auto + 0 Save = 10 byte                  *
     366            ;*****************************************************************************
     367 000000       hyphens:
     368            ;* --------------------------------------------------------------------------*
     369                    .dwcfi  cfa_offset, 2
     370                    .dwcfi  save_reg_to_mem, 16, -2
     371 000000 8031          SUB.W     #10,SP                ; [] 
         000002 000A 
     372                    .dwcfi  cfa_offset, 12
     373            $C$DW$27        .dwtag  DW_TAG_variable
     374                    .dwattr $C$DW$27, DW_AT_name("num")
     375                    .dwattr $C$DW$27, DW_AT_TI_symbol_name("num")
     376                    .dwattr $C$DW$27, DW_AT_type(*$C$DW$T$10)
     377                    .dwattr $C$DW$27, DW_AT_location[DW_OP_breg1 4]
     378            
     379            $C$DW$28        .dwtag  DW_TAG_variable
     380                    .dwattr $C$DW$28, DW_AT_name("i")
     381                    .dwattr $C$DW$28, DW_AT_TI_symbol_name("i")
     382                    .dwattr $C$DW$28, DW_AT_type(*$C$DW$T$10)
     383                    .dwattr $C$DW$28, DW_AT_location[DW_OP_breg1 6]
     384            
     385            $C$DW$29        .dwtag  DW_TAG_variable
     386                    .dwattr $C$DW$29, DW_AT_name("dash")
     387                    .dwattr $C$DW$29, DW_AT_TI_symbol_name("dash")
MSP430 Assembler PC v21.6.0 Sat Jan 22 14:19:11 2022

Copyright (c) 2003-2018 Texas Instruments Incorporated
C:\Users\d_oti\AppData\Local\Temp\{363B67F7-9DCD-452D-B47D-A969BDAED65D} PAGE   11

     388                    .dwattr $C$DW$29, DW_AT_type(*$C$DW$T$6)
     389                    .dwattr $C$DW$29, DW_AT_location[DW_OP_breg1 8]
     390            
     391 000004 4D81          MOV.W     r13,4(SP)             ; [] |71| 
         000006 0004 
     392 000008 4CC1          MOV.B     r12,8(SP)             ; [] |71| 
         00000a 0008 
     393                    .dwpsn  file "../DataSizes.c",line 74,column 9,is_stmt,isa 0
     394 00000c 4381          MOV.W     #0,6(SP)              ; [] |74| 
         00000e 0006 
     395                    .dwpsn  file "../DataSizes.c",line 74,column 13,is_stmt,isa 0
     396 000010 9191          CMP.W     4(SP),6(SP)           ; [] |74| 
         000012 0004 
         000014 0006 
     397 000016 340F          JGE       $C$L2                 ; [] |74| 
     398                                                      ; [] |74| 
     399            ;* --------------------------------------------------------------------------*
     400            ;*   BEGIN LOOP $C$L1
     401            ;*
     402            ;*   Loop source line                : 74
     403            ;*   Loop closing brace source line  : 77
     404            ;*   Known Minimum Trip Count        : 1
     405            ;*   Known Maximum Trip Count        : 4294967295
     406            ;*   Known Max Trip Count Factor     : 1
     407            ;* --------------------------------------------------------------------------*
     408 000018       $C$L1:    
     409                    .dwpsn  file "../DataSizes.c",line 76,column 9,is_stmt,isa 0
     410 000018 40B1          MOV.W     #$C$SL26+0,0(SP)      ; [] |76| 
         00001a 0000!
         00001c 0000 
     411 00001e 415F          MOV.B     8(SP),r15             ; [] |76| 
         000020 0008 
     412 000022 4F81          MOV.W     r15,2(SP)             ; [] |76| 
         000024 0002 
     413            $C$DW$30        .dwtag  DW_TAG_TI_branch
     414                    .dwattr $C$DW$30, DW_AT_low_pc(0x00)
     415                    .dwattr $C$DW$30, DW_AT_name("printf")
     416                    .dwattr $C$DW$30, DW_AT_TI_call
     417            
     418 000026 12B0          CALL      #printf               ; [] |76| 
         000028 0000!
     419                                                      ; [] |76| 
     420                    .dwpsn  file "../DataSizes.c",line 74,column 19,is_stmt,isa 0
     421 00002a 5391          ADD.W     #1,6(SP)              ; [] |74| 
         00002c 0006 
     422                    .dwpsn  file "../DataSizes.c",line 74,column 13,is_stmt,isa 0
     423 00002e 9191          CMP.W     4(SP),6(SP)           ; [] |74| 
         000030 0004 
         000032 0006 
     424 000034 3BF1          JL        $C$L1                 ; [] |74| 
     425                                                      ; [] |74| 
     426            ;* --------------------------------------------------------------------------*
     427 000036       $C$L2:    
     428                    .dwpsn  file "../DataSizes.c",line 78,column 5,is_stmt,isa 0
     429 000036 40B1          MOV.W     #$C$SL27+0,0(SP)      ; [] |78| 
MSP430 Assembler PC v21.6.0 Sat Jan 22 14:19:11 2022

Copyright (c) 2003-2018 Texas Instruments Incorporated
C:\Users\d_oti\AppData\Local\Temp\{363B67F7-9DCD-452D-B47D-A969BDAED65D} PAGE   12

         000038 0000!
         00003a 0000 
     430            $C$DW$31        .dwtag  DW_TAG_TI_branch
     431                    .dwattr $C$DW$31, DW_AT_low_pc(0x00)
     432                    .dwattr $C$DW$31, DW_AT_name("printf")
     433                    .dwattr $C$DW$31, DW_AT_TI_call
     434            
     435 00003c 12B0          CALL      #printf               ; [] |78| 
         00003e 0000!
     436                                                      ; [] |78| 
     437                    .dwpsn  file "../DataSizes.c",line 79,column 1,is_stmt,isa 0
     438 000040 5031          ADD.W     #10,SP                ; [] 
         000042 000A 
     439                    .dwcfi  cfa_offset, 2
     440            $C$DW$32        .dwtag  DW_TAG_TI_branch
     441                    .dwattr $C$DW$32, DW_AT_low_pc(0x00)
     442                    .dwattr $C$DW$32, DW_AT_TI_return
     443            
     444 000044 4130          RET       ; [] 
     445                    ; [] 
     446                    .dwattr $C$DW$24, DW_AT_TI_end_file("../DataSizes.c")
     447                    .dwattr $C$DW$24, DW_AT_TI_end_line(0x4f)
     448                    .dwattr $C$DW$24, DW_AT_TI_end_column(0x01)
     449                    .dwendentry
     450                    .dwendtag $C$DW$24
     451            
     452            ;******************************************************************************
     453            ;* STRINGS                                                                    *
     454            ;******************************************************************************
     455 000000               .sect   ".const:.string"
     456                    .align  2
     457 000000 007C  $C$SL1: .string "| %-20s | %-20s | %-20s | %-20s|",10,0
         000001 0020 
         000002 0025 
         000003 002D 
         000004 0032 
         000005 0030 
         000006 0073 
         000007 0020 
         000008 007C 
         000009 0020 
         00000a 0025 
         00000b 002D 
         00000c 0032 
         00000d 0030 
         00000e 0073 
         00000f 0020 
         000010 007C 
         000011 0020 
         000012 0025 
         000013 002D 
         000014 0032 
         000015 0030 
         000016 0073 
         000017 0020 
MSP430 Assembler PC v21.6.0 Sat Jan 22 14:19:11 2022

Copyright (c) 2003-2018 Texas Instruments Incorporated
C:\Users\d_oti\AppData\Local\Temp\{363B67F7-9DCD-452D-B47D-A969BDAED65D} PAGE   13

         000018 007C 
         000019 0020 
         00001a 0025 
         00001b 002D 
         00001c 0032 
         00001d 0030 
         00001e 0073 
         00001f 007C 
         000020 000A 
         000021 0000 
     458                    .align  2
     459 000022 0044  $C$SL2: .string "Data Type",0
         000023 0061 
         000024 0074 
         000025 0061 
         000026 0020 
         000027 0054 
         000028 0079 
         000029 0070 
         00002a 0065 
         00002b 0000 
     460                    .align  2
     461 00002c 0053  $C$SL3: .string "Size (in bytes)",0
         00002d 0069 
         00002e 007A 
         00002f 0065 
         000030 0020 
         000031 0028 
         000032 0069 
         000033 006E 
         000034 0020 
         000035 0062 
         000036 0079 
         000037 0074 
         000038 0065 
         000039 0073 
         00003a 0029 
         00003b 0000 
     462                    .align  2
     463 00003c 004D  $C$SL4: .string "Minimum",0
         00003d 0069 
         00003e 006E 
         00003f 0069 
         000040 006D 
         000041 0075 
         000042 006D 
         000043 0000 
     464                    .align  2
     465 000044 004D  $C$SL5: .string "Maximum",0
         000045 0061 
         000046 0078 
         000047 0069 
         000048 006D 
         000049 0075 
         00004a 006D 
MSP430 Assembler PC v21.6.0 Sat Jan 22 14:19:11 2022

Copyright (c) 2003-2018 Texas Instruments Incorporated
C:\Users\d_oti\AppData\Local\Temp\{363B67F7-9DCD-452D-B47D-A969BDAED65D} PAGE   14

         00004b 0000 
     466                    .align  2
     467 00004c 007C  $C$SL6: .string "| %-20s | %-20d | %-20d | %-20d|",10,0
         00004d 0020 
         00004e 0025 
         00004f 002D 
         000050 0032 
         000051 0030 
         000052 0073 
         000053 0020 
         000054 007C 
         000055 0020 
         000056 0025 
         000057 002D 
         000058 0032 
         000059 0030 
         00005a 0064 
         00005b 0020 
         00005c 007C 
         00005d 0020 
         00005e 0025 
         00005f 002D 
         000060 0032 
         000061 0030 
         000062 0064 
         000063 0020 
         000064 007C 
         000065 0020 
         000066 0025 
         000067 002D 
         000068 0032 
         000069 0030 
         00006a 0064 
         00006b 007C 
         00006c 000A 
         00006d 0000 
     468                    .align  2
     469 00006e 0073  $C$SL7: .string "signed char",0
         00006f 0069 
         000070 0067 
         000071 006E 
         000072 0065 
         000073 0064 
         000074 0020 
         000075 0063 
         000076 0068 
         000077 0061 
         000078 0072 
         000079 0000 
     470                    .align  2
     471 00007a 0063  $C$SL8: .string "char",0
         00007b 0068 
         00007c 0061 
         00007d 0072 
         00007e 0000 
MSP430 Assembler PC v21.6.0 Sat Jan 22 14:19:11 2022

Copyright (c) 2003-2018 Texas Instruments Incorporated
C:\Users\d_oti\AppData\Local\Temp\{363B67F7-9DCD-452D-B47D-A969BDAED65D} PAGE   15

     472                    .align  2
     473 000080 0069  $C$SL9: .string "int",0
         000081 006E 
         000082 0074 
         000083 0000 
     474                    .align  2
     475 000084 007C  $C$SL10:        .string "| %-20s | %-20d | %-20d | %-20u|",10,0
         000085 0020 
         000086 0025 
         000087 002D 
         000088 0032 
         000089 0030 
         00008a 0073 
         00008b 0020 
         00008c 007C 
         00008d 0020 
         00008e 0025 
         00008f 002D 
         000090 0032 
         000091 0030 
         000092 0064 
         000093 0020 
         000094 007C 
         000095 0020 
         000096 0025 
         000097 002D 
         000098 0032 
         000099 0030 
         00009a 0064 
         00009b 0020 
         00009c 007C 
         00009d 0020 
         00009e 0025 
         00009f 002D 
         0000a0 0032 
         0000a1 0030 
         0000a2 0075 
         0000a3 007C 
         0000a4 000A 
         0000a5 0000 
     476                    .align  2
     477 0000a6 0075  $C$SL11:        .string "unsigned int",0
         0000a7 006E 
         0000a8 0073 
         0000a9 0069 
         0000aa 0067 
         0000ab 006E 
         0000ac 0065 
         0000ad 0064 
         0000ae 0020 
         0000af 0069 
         0000b0 006E 
         0000b1 0074 
         0000b2 0000 
     478                    .align  2
MSP430 Assembler PC v21.6.0 Sat Jan 22 14:19:11 2022

Copyright (c) 2003-2018 Texas Instruments Incorporated
C:\Users\d_oti\AppData\Local\Temp\{363B67F7-9DCD-452D-B47D-A969BDAED65D} PAGE   16

     479 0000b4 0073  $C$SL12:        .string "short int",0
         0000b5 0068 
         0000b6 006F 
         0000b7 0072 
         0000b8 0074 
         0000b9 0020 
         0000ba 0069 
         0000bb 006E 
         0000bc 0074 
         0000bd 0000 
     480                    .align  2
     481 0000be 007C  $C$SL13:        .string "| %-20s | %-20d | %-20d | %-20hu|",10,0
         0000bf 0020 
         0000c0 0025 
         0000c1 002D 
         0000c2 0032 
         0000c3 0030 
         0000c4 0073 
         0000c5 0020 
         0000c6 007C 
         0000c7 0020 
         0000c8 0025 
         0000c9 002D 
         0000ca 0032 
         0000cb 0030 
         0000cc 0064 
         0000cd 0020 
         0000ce 007C 
         0000cf 0020 
         0000d0 0025 
         0000d1 002D 
         0000d2 0032 
         0000d3 0030 
         0000d4 0064 
         0000d5 0020 
         0000d6 007C 
         0000d7 0020 
         0000d8 0025 
         0000d9 002D 
         0000da 0032 
         0000db 0030 
         0000dc 0068 
         0000dd 0075 
         0000de 007C 
         0000df 000A 
         0000e0 0000 
     482                    .align  2
     483 0000e2 0075  $C$SL14:        .string "unsigned short int",0
         0000e3 006E 
         0000e4 0073 
         0000e5 0069 
         0000e6 0067 
         0000e7 006E 
         0000e8 0065 
         0000e9 0064 
MSP430 Assembler PC v21.6.0 Sat Jan 22 14:19:11 2022

Copyright (c) 2003-2018 Texas Instruments Incorporated
C:\Users\d_oti\AppData\Local\Temp\{363B67F7-9DCD-452D-B47D-A969BDAED65D} PAGE   17

         0000ea 0020 
         0000eb 0073 
         0000ec 0068 
         0000ed 006F 
         0000ee 0072 
         0000ef 0074 
         0000f0 0020 
         0000f1 0069 
         0000f2 006E 
         0000f3 0074 
         0000f4 0000 
     484                    .align  2
     485 0000f6 007C  $C$SL15:        .string "| %-20s | %-20d | %-20ld | %-20ld|",10,0
         0000f7 0020 
         0000f8 0025 
         0000f9 002D 
         0000fa 0032 
         0000fb 0030 
         0000fc 0073 
         0000fd 0020 
         0000fe 007C 
         0000ff 0020 
         000100 0025 
         000101 002D 
         000102 0032 
         000103 0030 
         000104 0064 
         000105 0020 
         000106 007C 
         000107 0020 
         000108 0025 
         000109 002D 
         00010a 0032 
         00010b 0030 
         00010c 006C 
         00010d 0064 
         00010e 0020 
         00010f 007C 
         000110 0020 
         000111 0025 
         000112 002D 
         000113 0032 
         000114 0030 
         000115 006C 
         000116 0064 
         000117 007C 
         000118 000A 
         000119 0000 
     486                    .align  2
     487 00011a 006C  $C$SL16:        .string "long int",0
         00011b 006F 
         00011c 006E 
         00011d 0067 
         00011e 0020 
         00011f 0069 
MSP430 Assembler PC v21.6.0 Sat Jan 22 14:19:11 2022

Copyright (c) 2003-2018 Texas Instruments Incorporated
C:\Users\d_oti\AppData\Local\Temp\{363B67F7-9DCD-452D-B47D-A969BDAED65D} PAGE   18

         000120 006E 
         000121 0074 
         000122 0000 
     488                    .align  2
     489 000124 007C  $C$SL17:        .string "| %-20s | %-20d | %-20d | %-20lu|",10,0
         000125 0020 
         000126 0025 
         000127 002D 
         000128 0032 
         000129 0030 
         00012a 0073 
         00012b 0020 
         00012c 007C 
         00012d 0020 
         00012e 0025 
         00012f 002D 
         000130 0032 
         000131 0030 
         000132 0064 
         000133 0020 
         000134 007C 
         000135 0020 
         000136 0025 
         000137 002D 
         000138 0032 
         000139 0030 
         00013a 0064 
         00013b 0020 
         00013c 007C 
         00013d 0020 
         00013e 0025 
         00013f 002D 
         000140 0032 
         000141 0030 
         000142 006C 
         000143 0075 
         000144 007C 
         000145 000A 
         000146 0000 
     490                    .align  2
     491 000148 0075  $C$SL18:        .string "unsigned long int",0
         000149 006E 
         00014a 0073 
         00014b 0069 
         00014c 0067 
         00014d 006E 
         00014e 0065 
         00014f 0064 
         000150 0020 
         000151 006C 
         000152 006F 
         000153 006E 
         000154 0067 
         000155 0020 
         000156 0069 
MSP430 Assembler PC v21.6.0 Sat Jan 22 14:19:11 2022

Copyright (c) 2003-2018 Texas Instruments Incorporated
C:\Users\d_oti\AppData\Local\Temp\{363B67F7-9DCD-452D-B47D-A969BDAED65D} PAGE   19

         000157 006E 
         000158 0074 
         000159 0000 
     492                    .align  2
     493 00015a 007C  $C$SL19:        .string "| %-20s | %-20d | %-20lld | %-20lld|",10,0
         00015b 0020 
         00015c 0025 
         00015d 002D 
         00015e 0032 
         00015f 0030 
         000160 0073 
         000161 0020 
         000162 007C 
         000163 0020 
         000164 0025 
         000165 002D 
         000166 0032 
         000167 0030 
         000168 0064 
         000169 0020 
         00016a 007C 
         00016b 0020 
         00016c 0025 
         00016d 002D 
         00016e 0032 
         00016f 0030 
         000170 006C 
         000171 006C 
         000172 0064 
         000173 0020 
         000174 007C 
         000175 0020 
         000176 0025 
         000177 002D 
         000178 0032 
         000179 0030 
         00017a 006C 
         00017b 006C 
         00017c 0064 
         00017d 007C 
         00017e 000A 
         00017f 0000 
     494                    .align  2
     495 000180 006C  $C$SL20:        .string "long long int",0
         000181 006F 
         000182 006E 
         000183 0067 
         000184 0020 
         000185 006C 
         000186 006F 
         000187 006E 
         000188 0067 
         000189 0020 
         00018a 0069 
         00018b 006E 
MSP430 Assembler PC v21.6.0 Sat Jan 22 14:19:11 2022

Copyright (c) 2003-2018 Texas Instruments Incorporated
C:\Users\d_oti\AppData\Local\Temp\{363B67F7-9DCD-452D-B47D-A969BDAED65D} PAGE   20

         00018c 0074 
         00018d 0000 
     496                    .align  2
     497 00018e 007C  $C$SL21:        .string "| %-20s | %-20d | %-20d | %-20llu|",10,0
         00018f 0020 
         000190 0025 
         000191 002D 
         000192 0032 
         000193 0030 
         000194 0073 
         000195 0020 
         000196 007C 
         000197 0020 
         000198 0025 
         000199 002D 
         00019a 0032 
         00019b 0030 
         00019c 0064 
         00019d 0020 
         00019e 007C 
         00019f 0020 
         0001a0 0025 
         0001a1 002D 
         0001a2 0032 
         0001a3 0030 
         0001a4 0064 
         0001a5 0020 
         0001a6 007C 
         0001a7 0020 
         0001a8 0025 
         0001a9 002D 
         0001aa 0032 
         0001ab 0030 
         0001ac 006C 
         0001ad 006C 
         0001ae 0075 
         0001af 007C 
         0001b0 000A 
         0001b1 0000 
     498                    .align  2
     499 0001b2 0075  $C$SL22:        .string "unsigned long long",0
         0001b3 006E 
         0001b4 0073 
         0001b5 0069 
         0001b6 0067 
         0001b7 006E 
         0001b8 0065 
         0001b9 0064 
         0001ba 0020 
         0001bb 006C 
         0001bc 006F 
         0001bd 006E 
         0001be 0067 
         0001bf 0020 
         0001c0 006C 
MSP430 Assembler PC v21.6.0 Sat Jan 22 14:19:11 2022

Copyright (c) 2003-2018 Texas Instruments Incorporated
C:\Users\d_oti\AppData\Local\Temp\{363B67F7-9DCD-452D-B47D-A969BDAED65D} PAGE   21

         0001c1 006F 
         0001c2 006E 
         0001c3 0067 
         0001c4 0000 
     500                    .align  2
     501 0001c6 007C  $C$SL23:        .string "| %-20s | %-20d | %-20e | %-20e|",10,0
         0001c7 0020 
         0001c8 0025 
         0001c9 002D 
         0001ca 0032 
         0001cb 0030 
         0001cc 0073 
         0001cd 0020 
         0001ce 007C 
         0001cf 0020 
         0001d0 0025 
         0001d1 002D 
         0001d2 0032 
         0001d3 0030 
         0001d4 0064 
         0001d5 0020 
         0001d6 007C 
         0001d7 0020 
         0001d8 0025 
         0001d9 002D 
         0001da 0032 
         0001db 0030 
         0001dc 0065 
         0001dd 0020 
         0001de 007C 
         0001df 0020 
         0001e0 0025 
         0001e1 002D 
         0001e2 0032 
         0001e3 0030 
         0001e4 0065 
         0001e5 007C 
         0001e6 000A 
         0001e7 0000 
     502                    .align  2
     503 0001e8 0066  $C$SL24:        .string "float",0
         0001e9 006C 
         0001ea 006F 
         0001eb 0061 
         0001ec 0074 
         0001ed 0000 
     504                    .align  2
     505 0001ee 0064  $C$SL25:        .string "double",0
         0001ef 006F 
         0001f0 0075 
         0001f1 0062 
         0001f2 006C 
         0001f3 0065 
         0001f4 0000 
     506                    .align  2
MSP430 Assembler PC v21.6.0 Sat Jan 22 14:19:11 2022

Copyright (c) 2003-2018 Texas Instruments Incorporated
C:\Users\d_oti\AppData\Local\Temp\{363B67F7-9DCD-452D-B47D-A969BDAED65D} PAGE   22

     507 0001f6 0025  $C$SL26:        .string "%c",0
         0001f7 0063 
         0001f8 0000 
     508                    .align  2
     509 0001fa 000A  $C$SL27:        .string 10,0
         0001fb 0000 
     510            ;*****************************************************************************
     511            ;* UNDEFINED EXTERNAL REFERENCES                                             *
     512            ;*****************************************************************************
     513                    .global WDTCTL
     514                    .global printf
     515            
     516            ;******************************************************************************
     517            ;* BUILD ATTRIBUTES                                                           *
     518            ;******************************************************************************
     519                    .battr "TI", Tag_File, 1, Tag_LPM_INFO(1)
     520                    .battr "TI", Tag_File, 1, Tag_PORTS_INIT_INFO("012345678901ABCDEFGHIJ0000000000001111000000000
     521                    .battr "TI", Tag_File, 1, Tag_LEA_INFO(1)
     522                    .battr "TI", Tag_File, 1, Tag_HW_MPY32_INFO(2)
     523                    .battr "TI", Tag_File, 1, Tag_HW_MPY_ISR_INFO(1)
     524                    .battr "TI", Tag_File, 1, Tag_HW_MPY_INLINE_INFO(1)
     525                    .battr "mspabi", Tag_File, 1, Tag_enum_size(3)
     526            
     527            ;******************************************************************************
     528            ;* TYPE INFORMATION                                                           *
     529            ;******************************************************************************
     530            
     531            $C$DW$T$21      .dwtag  DW_TAG_structure_type
     532                    .dwattr $C$DW$T$21, DW_AT_byte_size(0x10)
     533            $C$DW$33        .dwtag  DW_TAG_member
     534                    .dwattr $C$DW$33, DW_AT_type(*$C$DW$T$14)
     535                    .dwattr $C$DW$33, DW_AT_name("__max_align1")
     536                    .dwattr $C$DW$33, DW_AT_TI_symbol_name("__max_align1")
     537                    .dwattr $C$DW$33, DW_AT_data_member_location[DW_OP_plus_uconst 0x0]
     538                    .dwattr $C$DW$33, DW_AT_accessibility(DW_ACCESS_public)
     539                    .dwattr $C$DW$33, DW_AT_decl_file("C:/ti/ccs1110/ccs/tools/compiler/ti-cgt-msp430_21.6.0.LTS/i
     540                    .dwattr $C$DW$33, DW_AT_decl_line(0x7b)
     541                    .dwattr $C$DW$33, DW_AT_decl_column(0x0c)
     542            
     543            $C$DW$34        .dwtag  DW_TAG_member
     544                    .dwattr $C$DW$34, DW_AT_type(*$C$DW$T$18)
     545                    .dwattr $C$DW$34, DW_AT_name("__max_align2")
     546                    .dwattr $C$DW$34, DW_AT_TI_symbol_name("__max_align2")
     547                    .dwattr $C$DW$34, DW_AT_data_member_location[DW_OP_plus_uconst 0x8]
     548                    .dwattr $C$DW$34, DW_AT_accessibility(DW_ACCESS_public)
     549                    .dwattr $C$DW$34, DW_AT_decl_file("C:/ti/ccs1110/ccs/tools/compiler/ti-cgt-msp430_21.6.0.LTS/i
     550                    .dwattr $C$DW$34, DW_AT_decl_line(0x7c)
     551                    .dwattr $C$DW$34, DW_AT_decl_column(0x0e)
     552            
     553                    .dwattr $C$DW$T$21, DW_AT_decl_file("C:/ti/ccs1110/ccs/tools/compiler/ti-cgt-msp430_21.6.0.LTS
     554                    .dwattr $C$DW$T$21, DW_AT_decl_line(0x7a)
     555                    .dwattr $C$DW$T$21, DW_AT_decl_column(0x10)
     556                    .dwendtag $C$DW$T$21
     557            
     558            $C$DW$T$24      .dwtag  DW_TAG_typedef
MSP430 Assembler PC v21.6.0 Sat Jan 22 14:19:11 2022

Copyright (c) 2003-2018 Texas Instruments Incorporated
C:\Users\d_oti\AppData\Local\Temp\{363B67F7-9DCD-452D-B47D-A969BDAED65D} PAGE   23

     559                    .dwattr $C$DW$T$24, DW_AT_name("__max_align_t")
     560                    .dwattr $C$DW$T$24, DW_AT_type(*$C$DW$T$21)
     561                    .dwattr $C$DW$T$24, DW_AT_language(DW_LANG_C)
     562                    .dwattr $C$DW$T$24, DW_AT_decl_file("C:/ti/ccs1110/ccs/tools/compiler/ti-cgt-msp430_21.6.0.LTS
     563                    .dwattr $C$DW$T$24, DW_AT_decl_line(0x7d)
     564                    .dwattr $C$DW$T$24, DW_AT_decl_column(0x03)
     565            
     566            $C$DW$T$2       .dwtag  DW_TAG_unspecified_type
     567                    .dwattr $C$DW$T$2, DW_AT_name("void")
     568            
     569            
     570            $C$DW$T$25      .dwtag  DW_TAG_subroutine_type
     571                    .dwattr $C$DW$T$25, DW_AT_language(DW_LANG_C)
     572                    .dwendtag $C$DW$T$25
     573            
     574            $C$DW$T$26      .dwtag  DW_TAG_pointer_type
     575                    .dwattr $C$DW$T$26, DW_AT_type(*$C$DW$T$25)
     576                    .dwattr $C$DW$T$26, DW_AT_address_class(0x10)
     577            
     578            $C$DW$T$27      .dwtag  DW_TAG_typedef
     579                    .dwattr $C$DW$T$27, DW_AT_name("__SFR_FARPTR")
     580                    .dwattr $C$DW$T$27, DW_AT_type(*$C$DW$T$26)
     581                    .dwattr $C$DW$T$27, DW_AT_language(DW_LANG_C)
     582                    .dwattr $C$DW$T$27, DW_AT_decl_file("C:\ti\ccs1110\ccs\ccs_base\msp430\include\msp430f5529.h")
     583                    .dwattr $C$DW$T$27, DW_AT_decl_line(0x4a)
     584                    .dwattr $C$DW$T$27, DW_AT_decl_column(0x11)
     585            
     586            $C$DW$T$4       .dwtag  DW_TAG_base_type
     587                    .dwattr $C$DW$T$4, DW_AT_encoding(DW_ATE_boolean)
     588                    .dwattr $C$DW$T$4, DW_AT_name("bool")
     589                    .dwattr $C$DW$T$4, DW_AT_byte_size(0x01)
     590            
     591            $C$DW$T$5       .dwtag  DW_TAG_base_type
     592                    .dwattr $C$DW$T$5, DW_AT_encoding(DW_ATE_signed_char)
     593                    .dwattr $C$DW$T$5, DW_AT_name("signed char")
     594                    .dwattr $C$DW$T$5, DW_AT_byte_size(0x01)
     595            
     596            $C$DW$T$28      .dwtag  DW_TAG_typedef
     597                    .dwattr $C$DW$T$28, DW_AT_name("__int8_t")
     598                    .dwattr $C$DW$T$28, DW_AT_type(*$C$DW$T$5)
     599                    .dwattr $C$DW$T$28, DW_AT_language(DW_LANG_C)
     600                    .dwattr $C$DW$T$28, DW_AT_decl_file("C:/ti/ccs1110/ccs/tools/compiler/ti-cgt-msp430_21.6.0.LTS
     601                    .dwattr $C$DW$T$28, DW_AT_decl_line(0x36)
     602                    .dwattr $C$DW$T$28, DW_AT_decl_column(0x16)
     603            
     604            $C$DW$T$29      .dwtag  DW_TAG_typedef
     605                    .dwattr $C$DW$T$29, DW_AT_name("__int_least8_t")
     606                    .dwattr $C$DW$T$29, DW_AT_type(*$C$DW$T$28)
     607                    .dwattr $C$DW$T$29, DW_AT_language(DW_LANG_C)
     608                    .dwattr $C$DW$T$29, DW_AT_decl_file("C:/ti/ccs1110/ccs/tools/compiler/ti-cgt-msp430_21.6.0.LTS
     609                    .dwattr $C$DW$T$29, DW_AT_decl_line(0x5a)
     610                    .dwattr $C$DW$T$29, DW_AT_decl_column(0x12)
     611            
     612            $C$DW$T$6       .dwtag  DW_TAG_base_type
     613                    .dwattr $C$DW$T$6, DW_AT_encoding(DW_ATE_unsigned_char)
MSP430 Assembler PC v21.6.0 Sat Jan 22 14:19:11 2022

Copyright (c) 2003-2018 Texas Instruments Incorporated
C:\Users\d_oti\AppData\Local\Temp\{363B67F7-9DCD-452D-B47D-A969BDAED65D} PAGE   24

     614                    .dwattr $C$DW$T$6, DW_AT_name("unsigned char")
     615                    .dwattr $C$DW$T$6, DW_AT_byte_size(0x01)
     616            
     617            $C$DW$T$22      .dwtag  DW_TAG_pointer_type
     618                    .dwattr $C$DW$T$22, DW_AT_type(*$C$DW$T$6)
     619                    .dwattr $C$DW$T$22, DW_AT_address_class(0x10)
     620            
     621            $C$DW$T$30      .dwtag  DW_TAG_typedef
     622                    .dwattr $C$DW$T$30, DW_AT_name("__uint8_t")
     623                    .dwattr $C$DW$T$30, DW_AT_type(*$C$DW$T$6)
     624                    .dwattr $C$DW$T$30, DW_AT_language(DW_LANG_C)
     625                    .dwattr $C$DW$T$30, DW_AT_decl_file("C:/ti/ccs1110/ccs/tools/compiler/ti-cgt-msp430_21.6.0.LTS
     626                    .dwattr $C$DW$T$30, DW_AT_decl_line(0x37)
     627                    .dwattr $C$DW$T$30, DW_AT_decl_column(0x18)
     628            
     629            $C$DW$T$31      .dwtag  DW_TAG_typedef
     630                    .dwattr $C$DW$T$31, DW_AT_name("__sa_family_t")
     631                    .dwattr $C$DW$T$31, DW_AT_type(*$C$DW$T$30)
     632                    .dwattr $C$DW$T$31, DW_AT_language(DW_LANG_C)
     633                    .dwattr $C$DW$T$31, DW_AT_decl_file("C:/ti/ccs1110/ccs/tools/compiler/ti-cgt-msp430_21.6.0.LTS
     634                    .dwattr $C$DW$T$31, DW_AT_decl_line(0x47)
     635                    .dwattr $C$DW$T$31, DW_AT_decl_column(0x13)
     636            
     637            $C$DW$T$32      .dwtag  DW_TAG_typedef
     638                    .dwattr $C$DW$T$32, DW_AT_name("__uint_least8_t")
     639                    .dwattr $C$DW$T$32, DW_AT_type(*$C$DW$T$30)
     640                    .dwattr $C$DW$T$32, DW_AT_language(DW_LANG_C)
     641                    .dwattr $C$DW$T$32, DW_AT_decl_file("C:/ti/ccs1110/ccs/tools/compiler/ti-cgt-msp430_21.6.0.LTS
     642                    .dwattr $C$DW$T$32, DW_AT_decl_line(0x74)
     643                    .dwattr $C$DW$T$32, DW_AT_decl_column(0x13)
     644            
     645            $C$DW$T$7       .dwtag  DW_TAG_base_type
     646                    .dwattr $C$DW$T$7, DW_AT_encoding(DW_ATE_signed_char)
     647                    .dwattr $C$DW$T$7, DW_AT_name("wchar_t")
     648                    .dwattr $C$DW$T$7, DW_AT_byte_size(0x02)
     649            
     650            $C$DW$T$8       .dwtag  DW_TAG_base_type
     651                    .dwattr $C$DW$T$8, DW_AT_encoding(DW_ATE_signed)
     652                    .dwattr $C$DW$T$8, DW_AT_name("short")
     653                    .dwattr $C$DW$T$8, DW_AT_byte_size(0x02)
     654            
     655            $C$DW$T$9       .dwtag  DW_TAG_base_type
     656                    .dwattr $C$DW$T$9, DW_AT_encoding(DW_ATE_unsigned)
     657                    .dwattr $C$DW$T$9, DW_AT_name("unsigned short")
     658                    .dwattr $C$DW$T$9, DW_AT_byte_size(0x02)
     659            
     660            $C$DW$T$10      .dwtag  DW_TAG_base_type
     661                    .dwattr $C$DW$T$10, DW_AT_encoding(DW_ATE_signed)
     662                    .dwattr $C$DW$T$10, DW_AT_name("int")
     663                    .dwattr $C$DW$T$10, DW_AT_byte_size(0x02)
     664            
     665            $C$DW$T$33      .dwtag  DW_TAG_typedef
     666                    .dwattr $C$DW$T$33, DW_AT_name("_Mbstatet")
     667                    .dwattr $C$DW$T$33, DW_AT_type(*$C$DW$T$10)
     668                    .dwattr $C$DW$T$33, DW_AT_language(DW_LANG_C)
MSP430 Assembler PC v21.6.0 Sat Jan 22 14:19:11 2022

Copyright (c) 2003-2018 Texas Instruments Incorporated
C:\Users\d_oti\AppData\Local\Temp\{363B67F7-9DCD-452D-B47D-A969BDAED65D} PAGE   25

     669                    .dwattr $C$DW$T$33, DW_AT_decl_file("C:/ti/ccs1110/ccs/tools/compiler/ti-cgt-msp430_21.6.0.LTS
     670                    .dwattr $C$DW$T$33, DW_AT_decl_line(0x8f)
     671                    .dwattr $C$DW$T$33, DW_AT_decl_column(0x0d)
     672            
     673            $C$DW$T$34      .dwtag  DW_TAG_typedef
     674                    .dwattr $C$DW$T$34, DW_AT_name("__mbstate_t")
     675                    .dwattr $C$DW$T$34, DW_AT_type(*$C$DW$T$33)
     676                    .dwattr $C$DW$T$34, DW_AT_language(DW_LANG_C)
     677                    .dwattr $C$DW$T$34, DW_AT_decl_file("C:/ti/ccs1110/ccs/tools/compiler/ti-cgt-msp430_21.6.0.LTS
     678                    .dwattr $C$DW$T$34, DW_AT_decl_line(0x92)
     679                    .dwattr $C$DW$T$34, DW_AT_decl_column(0x13)
     680            
     681            $C$DW$T$35      .dwtag  DW_TAG_typedef
     682                    .dwattr $C$DW$T$35, DW_AT_name("__accmode_t")
     683                    .dwattr $C$DW$T$35, DW_AT_type(*$C$DW$T$10)
     684                    .dwattr $C$DW$T$35, DW_AT_language(DW_LANG_C)
     685                    .dwattr $C$DW$T$35, DW_AT_decl_file("C:/ti/ccs1110/ccs/tools/compiler/ti-cgt-msp430_21.6.0.LTS
     686                    .dwattr $C$DW$T$35, DW_AT_decl_line(0x3b)
     687                    .dwattr $C$DW$T$35, DW_AT_decl_column(0x0e)
     688            
     689            $C$DW$T$45      .dwtag  DW_TAG_typedef
     690                    .dwattr $C$DW$T$45, DW_AT_name("__cpulevel_t")
     691                    .dwattr $C$DW$T$45, DW_AT_type(*$C$DW$T$10)
     692                    .dwattr $C$DW$T$45, DW_AT_language(DW_LANG_C)
     693                    .dwattr $C$DW$T$45, DW_AT_decl_file("C:/ti/ccs1110/ccs/tools/compiler/ti-cgt-msp430_21.6.0.LTS
     694                    .dwattr $C$DW$T$45, DW_AT_decl_line(0x50)
     695                    .dwattr $C$DW$T$45, DW_AT_decl_column(0x0e)
     696            
     697            $C$DW$T$46      .dwtag  DW_TAG_typedef
     698                    .dwattr $C$DW$T$46, DW_AT_name("__cpusetid_t")
     699                    .dwattr $C$DW$T$46, DW_AT_type(*$C$DW$T$10)
     700                    .dwattr $C$DW$T$46, DW_AT_language(DW_LANG_C)
     701                    .dwattr $C$DW$T$46, DW_AT_decl_file("C:/ti/ccs1110/ccs/tools/compiler/ti-cgt-msp430_21.6.0.LTS
     702                    .dwattr $C$DW$T$46, DW_AT_decl_line(0x51)
     703                    .dwattr $C$DW$T$46, DW_AT_decl_column(0x0e)
     704            
     705            $C$DW$T$47      .dwtag  DW_TAG_typedef
     706                    .dwattr $C$DW$T$47, DW_AT_name("__cpuwhich_t")
     707                    .dwattr $C$DW$T$47, DW_AT_type(*$C$DW$T$10)
     708                    .dwattr $C$DW$T$47, DW_AT_language(DW_LANG_C)
     709                    .dwattr $C$DW$T$47, DW_AT_decl_file("C:/ti/ccs1110/ccs/tools/compiler/ti-cgt-msp430_21.6.0.LTS
     710                    .dwattr $C$DW$T$47, DW_AT_decl_line(0x4f)
     711                    .dwattr $C$DW$T$47, DW_AT_decl_column(0x0e)
     712            
     713            $C$DW$T$48      .dwtag  DW_TAG_typedef
     714                    .dwattr $C$DW$T$48, DW_AT_name("__ct_rune_t")
     715                    .dwattr $C$DW$T$48, DW_AT_type(*$C$DW$T$10)
     716                    .dwattr $C$DW$T$48, DW_AT_language(DW_LANG_C)
     717                    .dwattr $C$DW$T$48, DW_AT_decl_file("C:/ti/ccs1110/ccs/tools/compiler/ti-cgt-msp430_21.6.0.LTS
     718                    .dwattr $C$DW$T$48, DW_AT_decl_line(0x69)
     719                    .dwattr $C$DW$T$48, DW_AT_decl_column(0x0e)
     720            
     721            $C$DW$T$49      .dwtag  DW_TAG_typedef
     722                    .dwattr $C$DW$T$49, DW_AT_name("__rune_t")
     723                    .dwattr $C$DW$T$49, DW_AT_type(*$C$DW$T$48)
MSP430 Assembler PC v21.6.0 Sat Jan 22 14:19:11 2022

Copyright (c) 2003-2018 Texas Instruments Incorporated
C:\Users\d_oti\AppData\Local\Temp\{363B67F7-9DCD-452D-B47D-A969BDAED65D} PAGE   26

     724                    .dwattr $C$DW$T$49, DW_AT_language(DW_LANG_C)
     725                    .dwattr $C$DW$T$49, DW_AT_decl_file("C:/ti/ccs1110/ccs/tools/compiler/ti-cgt-msp430_21.6.0.LTS
     726                    .dwattr $C$DW$T$49, DW_AT_decl_line(0x6c)
     727                    .dwattr $C$DW$T$49, DW_AT_decl_column(0x15)
     728            
     729            $C$DW$T$50      .dwtag  DW_TAG_typedef
     730                    .dwattr $C$DW$T$50, DW_AT_name("__wint_t")
     731                    .dwattr $C$DW$T$50, DW_AT_type(*$C$DW$T$48)
     732                    .dwattr $C$DW$T$50, DW_AT_language(DW_LANG_C)
     733                    .dwattr $C$DW$T$50, DW_AT_decl_file("C:/ti/ccs1110/ccs/tools/compiler/ti-cgt-msp430_21.6.0.LTS
     734                    .dwattr $C$DW$T$50, DW_AT_decl_line(0x6d)
     735                    .dwattr $C$DW$T$50, DW_AT_decl_column(0x15)
     736            
     737            $C$DW$T$51      .dwtag  DW_TAG_typedef
     738                    .dwattr $C$DW$T$51, DW_AT_name("__int16_t")
     739                    .dwattr $C$DW$T$51, DW_AT_type(*$C$DW$T$10)
     740                    .dwattr $C$DW$T$51, DW_AT_language(DW_LANG_C)
     741                    .dwattr $C$DW$T$51, DW_AT_decl_file("C:/ti/ccs1110/ccs/tools/compiler/ti-cgt-msp430_21.6.0.LTS
     742                    .dwattr $C$DW$T$51, DW_AT_decl_line(0x38)
     743                    .dwattr $C$DW$T$51, DW_AT_decl_column(0x0f)
     744            
     745            $C$DW$T$52      .dwtag  DW_TAG_typedef
     746                    .dwattr $C$DW$T$52, DW_AT_name("__int_fast16_t")
     747                    .dwattr $C$DW$T$52, DW_AT_type(*$C$DW$T$51)
     748                    .dwattr $C$DW$T$52, DW_AT_language(DW_LANG_C)
     749                    .dwattr $C$DW$T$52, DW_AT_decl_file("C:/ti/ccs1110/ccs/tools/compiler/ti-cgt-msp430_21.6.0.LTS
     750                    .dwattr $C$DW$T$52, DW_AT_decl_line(0x57)
     751                    .dwattr $C$DW$T$52, DW_AT_decl_column(0x13)
     752            
     753            $C$DW$T$53      .dwtag  DW_TAG_typedef
     754                    .dwattr $C$DW$T$53, DW_AT_name("__int_fast8_t")
     755                    .dwattr $C$DW$T$53, DW_AT_type(*$C$DW$T$51)
     756                    .dwattr $C$DW$T$53, DW_AT_language(DW_LANG_C)
     757                    .dwattr $C$DW$T$53, DW_AT_decl_file("C:/ti/ccs1110/ccs/tools/compiler/ti-cgt-msp430_21.6.0.LTS
     758                    .dwattr $C$DW$T$53, DW_AT_decl_line(0x56)
     759                    .dwattr $C$DW$T$53, DW_AT_decl_column(0x13)
     760            
     761            $C$DW$T$54      .dwtag  DW_TAG_typedef
     762                    .dwattr $C$DW$T$54, DW_AT_name("__int_least16_t")
     763                    .dwattr $C$DW$T$54, DW_AT_type(*$C$DW$T$51)
     764                    .dwattr $C$DW$T$54, DW_AT_language(DW_LANG_C)
     765                    .dwattr $C$DW$T$54, DW_AT_decl_file("C:/ti/ccs1110/ccs/tools/compiler/ti-cgt-msp430_21.6.0.LTS
     766                    .dwattr $C$DW$T$54, DW_AT_decl_line(0x5b)
     767                    .dwattr $C$DW$T$54, DW_AT_decl_column(0x13)
     768            
     769            $C$DW$T$55      .dwtag  DW_TAG_typedef
     770                    .dwattr $C$DW$T$55, DW_AT_name("__intptr_t")
     771                    .dwattr $C$DW$T$55, DW_AT_type(*$C$DW$T$51)
     772                    .dwattr $C$DW$T$55, DW_AT_language(DW_LANG_C)
     773                    .dwattr $C$DW$T$55, DW_AT_decl_file("C:/ti/ccs1110/ccs/tools/compiler/ti-cgt-msp430_21.6.0.LTS
     774                    .dwattr $C$DW$T$55, DW_AT_decl_line(0x53)
     775                    .dwattr $C$DW$T$55, DW_AT_decl_column(0x19)
     776            
     777            $C$DW$T$56      .dwtag  DW_TAG_typedef
     778                    .dwattr $C$DW$T$56, DW_AT_name("__register_t")
MSP430 Assembler PC v21.6.0 Sat Jan 22 14:19:11 2022

Copyright (c) 2003-2018 Texas Instruments Incorporated
C:\Users\d_oti\AppData\Local\Temp\{363B67F7-9DCD-452D-B47D-A969BDAED65D} PAGE   27

     779                    .dwattr $C$DW$T$56, DW_AT_type(*$C$DW$T$51)
     780                    .dwattr $C$DW$T$56, DW_AT_language(DW_LANG_C)
     781                    .dwattr $C$DW$T$56, DW_AT_decl_file("C:/ti/ccs1110/ccs/tools/compiler/ti-cgt-msp430_21.6.0.LTS
     782                    .dwattr $C$DW$T$56, DW_AT_decl_line(0x5f)
     783                    .dwattr $C$DW$T$56, DW_AT_decl_column(0x13)
     784            
     785            $C$DW$T$57      .dwtag  DW_TAG_typedef
     786                    .dwattr $C$DW$T$57, DW_AT_name("__nl_item")
     787                    .dwattr $C$DW$T$57, DW_AT_type(*$C$DW$T$10)
     788                    .dwattr $C$DW$T$57, DW_AT_language(DW_LANG_C)
     789                    .dwattr $C$DW$T$57, DW_AT_decl_file("C:/ti/ccs1110/ccs/tools/compiler/ti-cgt-msp430_21.6.0.LTS
     790                    .dwattr $C$DW$T$57, DW_AT_decl_line(0x3c)
     791                    .dwattr $C$DW$T$57, DW_AT_decl_column(0x0e)
     792            
     793            $C$DW$T$58      .dwtag  DW_TAG_typedef
     794                    .dwattr $C$DW$T$58, DW_AT_name("__ptrdiff_t")
     795                    .dwattr $C$DW$T$58, DW_AT_type(*$C$DW$T$10)
     796                    .dwattr $C$DW$T$58, DW_AT_language(DW_LANG_C)
     797                    .dwattr $C$DW$T$58, DW_AT_decl_file("C:/ti/ccs1110/ccs/tools/compiler/ti-cgt-msp430_21.6.0.LTS
     798                    .dwattr $C$DW$T$58, DW_AT_decl_line(0x5e)
     799                    .dwattr $C$DW$T$58, DW_AT_decl_column(0x1c)
     800            
     801            $C$DW$T$11      .dwtag  DW_TAG_base_type
     802                    .dwattr $C$DW$T$11, DW_AT_encoding(DW_ATE_unsigned)
     803                    .dwattr $C$DW$T$11, DW_AT_name("unsigned int")
     804                    .dwattr $C$DW$T$11, DW_AT_byte_size(0x02)
     805            
     806            $C$DW$T$59      .dwtag  DW_TAG_typedef
     807                    .dwattr $C$DW$T$59, DW_AT_name("___wchar_t")
     808                    .dwattr $C$DW$T$59, DW_AT_type(*$C$DW$T$11)
     809                    .dwattr $C$DW$T$59, DW_AT_language(DW_LANG_C)
     810                    .dwattr $C$DW$T$59, DW_AT_decl_file("C:/ti/ccs1110/ccs/tools/compiler/ti-cgt-msp430_21.6.0.LTS
     811                    .dwattr $C$DW$T$59, DW_AT_decl_line(0x7d)
     812                    .dwattr $C$DW$T$59, DW_AT_decl_column(0x1a)
     813            
     814            $C$DW$T$60      .dwtag  DW_TAG_volatile_type
     815                    .dwattr $C$DW$T$60, DW_AT_type(*$C$DW$T$11)
     816            
     817            $C$DW$T$61      .dwtag  DW_TAG_typedef
     818                    .dwattr $C$DW$T$61, DW_AT_name("__size_t")
     819                    .dwattr $C$DW$T$61, DW_AT_type(*$C$DW$T$11)
     820                    .dwattr $C$DW$T$61, DW_AT_language(DW_LANG_C)
     821                    .dwattr $C$DW$T$61, DW_AT_decl_file("C:/ti/ccs1110/ccs/tools/compiler/ti-cgt-msp430_21.6.0.LTS
     822                    .dwattr $C$DW$T$61, DW_AT_decl_line(0x61)
     823                    .dwattr $C$DW$T$61, DW_AT_decl_column(0x19)
     824            
     825            $C$DW$T$62      .dwtag  DW_TAG_typedef
     826                    .dwattr $C$DW$T$62, DW_AT_name("__uint16_t")
     827                    .dwattr $C$DW$T$62, DW_AT_type(*$C$DW$T$11)
     828                    .dwattr $C$DW$T$62, DW_AT_language(DW_LANG_C)
     829                    .dwattr $C$DW$T$62, DW_AT_decl_file("C:/ti/ccs1110/ccs/tools/compiler/ti-cgt-msp430_21.6.0.LTS
     830                    .dwattr $C$DW$T$62, DW_AT_decl_line(0x39)
     831                    .dwattr $C$DW$T$62, DW_AT_decl_column(0x17)
     832            
     833            $C$DW$T$63      .dwtag  DW_TAG_typedef
MSP430 Assembler PC v21.6.0 Sat Jan 22 14:19:11 2022

Copyright (c) 2003-2018 Texas Instruments Incorporated
C:\Users\d_oti\AppData\Local\Temp\{363B67F7-9DCD-452D-B47D-A969BDAED65D} PAGE   28

     834                    .dwattr $C$DW$T$63, DW_AT_name("__mode_t")
     835                    .dwattr $C$DW$T$63, DW_AT_type(*$C$DW$T$62)
     836                    .dwattr $C$DW$T$63, DW_AT_language(DW_LANG_C)
     837                    .dwattr $C$DW$T$63, DW_AT_decl_file("C:/ti/ccs1110/ccs/tools/compiler/ti-cgt-msp430_21.6.0.LTS
     838                    .dwattr $C$DW$T$63, DW_AT_decl_line(0x3a)
     839                    .dwattr $C$DW$T$63, DW_AT_decl_column(0x14)
     840            
     841            $C$DW$T$64      .dwtag  DW_TAG_typedef
     842                    .dwattr $C$DW$T$64, DW_AT_name("__u_register_t")
     843                    .dwattr $C$DW$T$64, DW_AT_type(*$C$DW$T$62)
     844                    .dwattr $C$DW$T$64, DW_AT_language(DW_LANG_C)
     845                    .dwattr $C$DW$T$64, DW_AT_decl_file("C:/ti/ccs1110/ccs/tools/compiler/ti-cgt-msp430_21.6.0.LTS
     846                    .dwattr $C$DW$T$64, DW_AT_decl_line(0x78)
     847                    .dwattr $C$DW$T$64, DW_AT_decl_column(0x14)
     848            
     849            $C$DW$T$65      .dwtag  DW_TAG_typedef
     850                    .dwattr $C$DW$T$65, DW_AT_name("__uint_fast16_t")
     851                    .dwattr $C$DW$T$65, DW_AT_type(*$C$DW$T$62)
     852                    .dwattr $C$DW$T$65, DW_AT_language(DW_LANG_C)
     853                    .dwattr $C$DW$T$65, DW_AT_decl_file("C:/ti/ccs1110/ccs/tools/compiler/ti-cgt-msp430_21.6.0.LTS
     854                    .dwattr $C$DW$T$65, DW_AT_decl_line(0x71)
     855                    .dwattr $C$DW$T$65, DW_AT_decl_column(0x14)
     856            
     857            $C$DW$T$66      .dwtag  DW_TAG_typedef
     858                    .dwattr $C$DW$T$66, DW_AT_name("__uint_fast8_t")
     859                    .dwattr $C$DW$T$66, DW_AT_type(*$C$DW$T$62)
     860                    .dwattr $C$DW$T$66, DW_AT_language(DW_LANG_C)
     861                    .dwattr $C$DW$T$66, DW_AT_decl_file("C:/ti/ccs1110/ccs/tools/compiler/ti-cgt-msp430_21.6.0.LTS
     862                    .dwattr $C$DW$T$66, DW_AT_decl_line(0x70)
     863                    .dwattr $C$DW$T$66, DW_AT_decl_column(0x14)
     864            
     865            $C$DW$T$67      .dwtag  DW_TAG_typedef
     866                    .dwattr $C$DW$T$67, DW_AT_name("__uint_least16_t")
     867                    .dwattr $C$DW$T$67, DW_AT_type(*$C$DW$T$62)
     868                    .dwattr $C$DW$T$67, DW_AT_language(DW_LANG_C)
     869                    .dwattr $C$DW$T$67, DW_AT_decl_file("C:/ti/ccs1110/ccs/tools/compiler/ti-cgt-msp430_21.6.0.LTS
     870                    .dwattr $C$DW$T$67, DW_AT_decl_line(0x75)
     871                    .dwattr $C$DW$T$67, DW_AT_decl_column(0x14)
     872            
     873            $C$DW$T$68      .dwtag  DW_TAG_typedef
     874                    .dwattr $C$DW$T$68, DW_AT_name("__char16_t")
     875                    .dwattr $C$DW$T$68, DW_AT_type(*$C$DW$T$67)
     876                    .dwattr $C$DW$T$68, DW_AT_language(DW_LANG_C)
     877                    .dwattr $C$DW$T$68, DW_AT_decl_file("C:/ti/ccs1110/ccs/tools/compiler/ti-cgt-msp430_21.6.0.LTS
     878                    .dwattr $C$DW$T$68, DW_AT_decl_line(0x71)
     879                    .dwattr $C$DW$T$68, DW_AT_decl_column(0x1a)
     880            
     881            $C$DW$T$69      .dwtag  DW_TAG_typedef
     882                    .dwattr $C$DW$T$69, DW_AT_name("__uintptr_t")
     883                    .dwattr $C$DW$T$69, DW_AT_type(*$C$DW$T$62)
     884                    .dwattr $C$DW$T$69, DW_AT_language(DW_LANG_C)
     885                    .dwattr $C$DW$T$69, DW_AT_decl_file("C:/ti/ccs1110/ccs/tools/compiler/ti-cgt-msp430_21.6.0.LTS
     886                    .dwattr $C$DW$T$69, DW_AT_decl_line(0x6d)
     887                    .dwattr $C$DW$T$69, DW_AT_decl_column(0x14)
     888            
MSP430 Assembler PC v21.6.0 Sat Jan 22 14:19:11 2022

Copyright (c) 2003-2018 Texas Instruments Incorporated
C:\Users\d_oti\AppData\Local\Temp\{363B67F7-9DCD-452D-B47D-A969BDAED65D} PAGE   29

     889            $C$DW$T$70      .dwtag  DW_TAG_typedef
     890                    .dwattr $C$DW$T$70, DW_AT_name("__useconds_t")
     891                    .dwattr $C$DW$T$70, DW_AT_type(*$C$DW$T$11)
     892                    .dwattr $C$DW$T$70, DW_AT_language(DW_LANG_C)
     893                    .dwattr $C$DW$T$70, DW_AT_decl_file("C:/ti/ccs1110/ccs/tools/compiler/ti-cgt-msp430_21.6.0.LTS
     894                    .dwattr $C$DW$T$70, DW_AT_decl_line(0x4e)
     895                    .dwattr $C$DW$T$70, DW_AT_decl_column(0x16)
     896            
     897            $C$DW$T$71      .dwtag  DW_TAG_typedef
     898                    .dwattr $C$DW$T$71, DW_AT_name("size_t")
     899                    .dwattr $C$DW$T$71, DW_AT_type(*$C$DW$T$11)
     900                    .dwattr $C$DW$T$71, DW_AT_language(DW_LANG_C)
     901                    .dwattr $C$DW$T$71, DW_AT_decl_file("C:/ti/ccs1110/ccs/tools/compiler/ti-cgt-msp430_21.6.0.LTS
     902                    .dwattr $C$DW$T$71, DW_AT_decl_line(0x4d)
     903                    .dwattr $C$DW$T$71, DW_AT_decl_column(0x19)
     904            
     905            $C$DW$T$12      .dwtag  DW_TAG_base_type
     906                    .dwattr $C$DW$T$12, DW_AT_encoding(DW_ATE_signed)
     907                    .dwattr $C$DW$T$12, DW_AT_name("long")
     908                    .dwattr $C$DW$T$12, DW_AT_byte_size(0x04)
     909            
     910            $C$DW$T$72      .dwtag  DW_TAG_typedef
     911                    .dwattr $C$DW$T$72, DW_AT_name("__int32_t")
     912                    .dwattr $C$DW$T$72, DW_AT_type(*$C$DW$T$12)
     913                    .dwattr $C$DW$T$72, DW_AT_language(DW_LANG_C)
     914                    .dwattr $C$DW$T$72, DW_AT_decl_file("C:/ti/ccs1110/ccs/tools/compiler/ti-cgt-msp430_21.6.0.LTS
     915                    .dwattr $C$DW$T$72, DW_AT_decl_line(0x3a)
     916                    .dwattr $C$DW$T$72, DW_AT_decl_column(0x10)
     917            
     918            $C$DW$T$73      .dwtag  DW_TAG_typedef
     919                    .dwattr $C$DW$T$73, DW_AT_name("__blksize_t")
     920                    .dwattr $C$DW$T$73, DW_AT_type(*$C$DW$T$72)
     921                    .dwattr $C$DW$T$73, DW_AT_language(DW_LANG_C)
     922                    .dwattr $C$DW$T$73, DW_AT_decl_file("C:/ti/ccs1110/ccs/tools/compiler/ti-cgt-msp430_21.6.0.LTS
     923                    .dwattr $C$DW$T$73, DW_AT_decl_line(0x2f)
     924                    .dwattr $C$DW$T$73, DW_AT_decl_column(0x13)
     925            
     926            $C$DW$T$74      .dwtag  DW_TAG_typedef
     927                    .dwattr $C$DW$T$74, DW_AT_name("__clockid_t")
     928                    .dwattr $C$DW$T$74, DW_AT_type(*$C$DW$T$72)
     929                    .dwattr $C$DW$T$74, DW_AT_language(DW_LANG_C)
     930                    .dwattr $C$DW$T$74, DW_AT_decl_file("C:/ti/ccs1110/ccs/tools/compiler/ti-cgt-msp430_21.6.0.LTS
     931                    .dwattr $C$DW$T$74, DW_AT_decl_line(0x31)
     932                    .dwattr $C$DW$T$74, DW_AT_decl_column(0x13)
     933            
     934            $C$DW$T$75      .dwtag  DW_TAG_typedef
     935                    .dwattr $C$DW$T$75, DW_AT_name("__critical_t")
     936                    .dwattr $C$DW$T$75, DW_AT_type(*$C$DW$T$72)
     937                    .dwattr $C$DW$T$75, DW_AT_language(DW_LANG_C)
     938                    .dwattr $C$DW$T$75, DW_AT_decl_file("C:/ti/ccs1110/ccs/tools/compiler/ti-cgt-msp430_21.6.0.LTS
     939                    .dwattr $C$DW$T$75, DW_AT_decl_line(0x4b)
     940                    .dwattr $C$DW$T$75, DW_AT_decl_column(0x13)
     941            
     942            $C$DW$T$76      .dwtag  DW_TAG_typedef
     943                    .dwattr $C$DW$T$76, DW_AT_name("__int_fast32_t")
MSP430 Assembler PC v21.6.0 Sat Jan 22 14:19:11 2022

Copyright (c) 2003-2018 Texas Instruments Incorporated
C:\Users\d_oti\AppData\Local\Temp\{363B67F7-9DCD-452D-B47D-A969BDAED65D} PAGE   30

     944                    .dwattr $C$DW$T$76, DW_AT_type(*$C$DW$T$72)
     945                    .dwattr $C$DW$T$76, DW_AT_language(DW_LANG_C)
     946                    .dwattr $C$DW$T$76, DW_AT_decl_file("C:/ti/ccs1110/ccs/tools/compiler/ti-cgt-msp430_21.6.0.LTS
     947                    .dwattr $C$DW$T$76, DW_AT_decl_line(0x58)
     948                    .dwattr $C$DW$T$76, DW_AT_decl_column(0x13)
     949            
     950            $C$DW$T$77      .dwtag  DW_TAG_typedef
     951                    .dwattr $C$DW$T$77, DW_AT_name("__int_least32_t")
     952                    .dwattr $C$DW$T$77, DW_AT_type(*$C$DW$T$72)
     953                    .dwattr $C$DW$T$77, DW_AT_language(DW_LANG_C)
     954                    .dwattr $C$DW$T$77, DW_AT_decl_file("C:/ti/ccs1110/ccs/tools/compiler/ti-cgt-msp430_21.6.0.LTS
     955                    .dwattr $C$DW$T$77, DW_AT_decl_line(0x5c)
     956                    .dwattr $C$DW$T$77, DW_AT_decl_column(0x13)
     957            
     958            $C$DW$T$78      .dwtag  DW_TAG_typedef
     959                    .dwattr $C$DW$T$78, DW_AT_name("__intfptr_t")
     960                    .dwattr $C$DW$T$78, DW_AT_type(*$C$DW$T$72)
     961                    .dwattr $C$DW$T$78, DW_AT_language(DW_LANG_C)
     962                    .dwattr $C$DW$T$78, DW_AT_decl_file("C:/ti/ccs1110/ccs/tools/compiler/ti-cgt-msp430_21.6.0.LTS
     963                    .dwattr $C$DW$T$78, DW_AT_decl_line(0x4e)
     964                    .dwattr $C$DW$T$78, DW_AT_decl_column(0x13)
     965            
     966            $C$DW$T$79      .dwtag  DW_TAG_typedef
     967                    .dwattr $C$DW$T$79, DW_AT_name("__lwpid_t")
     968                    .dwattr $C$DW$T$79, DW_AT_type(*$C$DW$T$72)
     969                    .dwattr $C$DW$T$79, DW_AT_language(DW_LANG_C)
     970                    .dwattr $C$DW$T$79, DW_AT_decl_file("C:/ti/ccs1110/ccs/tools/compiler/ti-cgt-msp430_21.6.0.LTS
     971                    .dwattr $C$DW$T$79, DW_AT_decl_line(0x39)
     972                    .dwattr $C$DW$T$79, DW_AT_decl_column(0x13)
     973            
     974            $C$DW$T$80      .dwtag  DW_TAG_typedef
     975                    .dwattr $C$DW$T$80, DW_AT_name("__pid_t")
     976                    .dwattr $C$DW$T$80, DW_AT_type(*$C$DW$T$72)
     977                    .dwattr $C$DW$T$80, DW_AT_language(DW_LANG_C)
     978                    .dwattr $C$DW$T$80, DW_AT_decl_file("C:/ti/ccs1110/ccs/tools/compiler/ti-cgt-msp430_21.6.0.LTS
     979                    .dwattr $C$DW$T$80, DW_AT_decl_line(0x40)
     980                    .dwattr $C$DW$T$80, DW_AT_decl_column(0x13)
     981            
     982            $C$DW$T$81      .dwtag  DW_TAG_typedef
     983                    .dwattr $C$DW$T$81, DW_AT_name("__segsz_t")
     984                    .dwattr $C$DW$T$81, DW_AT_type(*$C$DW$T$72)
     985                    .dwattr $C$DW$T$81, DW_AT_language(DW_LANG_C)
     986                    .dwattr $C$DW$T$81, DW_AT_decl_file("C:/ti/ccs1110/ccs/tools/compiler/ti-cgt-msp430_21.6.0.LTS
     987                    .dwattr $C$DW$T$81, DW_AT_decl_line(0x60)
     988                    .dwattr $C$DW$T$81, DW_AT_decl_column(0x13)
     989            
     990            $C$DW$T$82      .dwtag  DW_TAG_typedef
     991                    .dwattr $C$DW$T$82, DW_AT_name("__ssize_t")
     992                    .dwattr $C$DW$T$82, DW_AT_type(*$C$DW$T$72)
     993                    .dwattr $C$DW$T$82, DW_AT_language(DW_LANG_C)
     994                    .dwattr $C$DW$T$82, DW_AT_decl_file("C:/ti/ccs1110/ccs/tools/compiler/ti-cgt-msp430_21.6.0.LTS
     995                    .dwattr $C$DW$T$82, DW_AT_decl_line(0x62)
     996                    .dwattr $C$DW$T$82, DW_AT_decl_column(0x13)
     997            
     998            $C$DW$T$83      .dwtag  DW_TAG_typedef
MSP430 Assembler PC v21.6.0 Sat Jan 22 14:19:11 2022

Copyright (c) 2003-2018 Texas Instruments Incorporated
C:\Users\d_oti\AppData\Local\Temp\{363B67F7-9DCD-452D-B47D-A969BDAED65D} PAGE   31

     999                    .dwattr $C$DW$T$83, DW_AT_name("__key_t")
    1000                    .dwattr $C$DW$T$83, DW_AT_type(*$C$DW$T$12)
    1001                    .dwattr $C$DW$T$83, DW_AT_language(DW_LANG_C)
    1002                    .dwattr $C$DW$T$83, DW_AT_decl_file("C:/ti/ccs1110/ccs/tools/compiler/ti-cgt-msp430_21.6.0.LTS
    1003                    .dwattr $C$DW$T$83, DW_AT_decl_line(0x38)
    1004                    .dwattr $C$DW$T$83, DW_AT_decl_column(0x0f)
    1005            
    1006            $C$DW$T$84      .dwtag  DW_TAG_typedef
    1007                    .dwattr $C$DW$T$84, DW_AT_name("__suseconds_t")
    1008                    .dwattr $C$DW$T$84, DW_AT_type(*$C$DW$T$12)
    1009                    .dwattr $C$DW$T$84, DW_AT_language(DW_LANG_C)
    1010                    .dwattr $C$DW$T$84, DW_AT_decl_file("C:/ti/ccs1110/ccs/tools/compiler/ti-cgt-msp430_21.6.0.LTS
    1011                    .dwattr $C$DW$T$84, DW_AT_decl_line(0x4a)
    1012                    .dwattr $C$DW$T$84, DW_AT_decl_column(0x0f)
    1013            
    1014            $C$DW$T$85      .dwtag  DW_TAG_typedef
    1015                    .dwattr $C$DW$T$85, DW_AT_name("_off_t")
    1016                    .dwattr $C$DW$T$85, DW_AT_type(*$C$DW$T$12)
    1017                    .dwattr $C$DW$T$85, DW_AT_language(DW_LANG_C)
    1018                    .dwattr $C$DW$T$85, DW_AT_decl_file("C:/ti/ccs1110/ccs/tools/compiler/ti-cgt-msp430_21.6.0.LTS
    1019                    .dwattr $C$DW$T$85, DW_AT_decl_line(0x8d)
    1020                    .dwattr $C$DW$T$85, DW_AT_decl_column(0x12)
    1021            
    1022            $C$DW$T$86      .dwtag  DW_TAG_typedef
    1023                    .dwattr $C$DW$T$86, DW_AT_name("__off_t")
    1024                    .dwattr $C$DW$T$86, DW_AT_type(*$C$DW$T$85)
    1025                    .dwattr $C$DW$T$86, DW_AT_language(DW_LANG_C)
    1026                    .dwattr $C$DW$T$86, DW_AT_decl_file("C:/ti/ccs1110/ccs/tools/compiler/ti-cgt-msp430_21.6.0.LTS
    1027                    .dwattr $C$DW$T$86, DW_AT_decl_line(0x3e)
    1028                    .dwattr $C$DW$T$86, DW_AT_decl_column(0x18)
    1029            
    1030            $C$DW$T$87      .dwtag  DW_TAG_typedef
    1031                    .dwattr $C$DW$T$87, DW_AT_name("fpos_t")
    1032                    .dwattr $C$DW$T$87, DW_AT_type(*$C$DW$T$12)
    1033                    .dwattr $C$DW$T$87, DW_AT_language(DW_LANG_C)
    1034                    .dwattr $C$DW$T$87, DW_AT_decl_file("C:/ti/ccs1110/ccs/tools/compiler/ti-cgt-msp430_21.6.0.LTS
    1035                    .dwattr $C$DW$T$87, DW_AT_decl_line(0x6b)
    1036                    .dwattr $C$DW$T$87, DW_AT_decl_column(0x0e)
    1037            
    1038            $C$DW$T$88      .dwtag  DW_TAG_typedef
    1039                    .dwattr $C$DW$T$88, DW_AT_name("off_t")
    1040                    .dwattr $C$DW$T$88, DW_AT_type(*$C$DW$T$12)
    1041                    .dwattr $C$DW$T$88, DW_AT_language(DW_LANG_C)
    1042                    .dwattr $C$DW$T$88, DW_AT_decl_file("C:/ti/ccs1110/ccs/tools/compiler/ti-cgt-msp430_21.6.0.LTS
    1043                    .dwattr $C$DW$T$88, DW_AT_decl_line(0x74)
    1044                    .dwattr $C$DW$T$88, DW_AT_decl_column(0x0e)
    1045            
    1046            $C$DW$T$13      .dwtag  DW_TAG_base_type
    1047                    .dwattr $C$DW$T$13, DW_AT_encoding(DW_ATE_unsigned)
    1048                    .dwattr $C$DW$T$13, DW_AT_name("unsigned long")
    1049                    .dwattr $C$DW$T$13, DW_AT_byte_size(0x04)
    1050            
    1051            $C$DW$T$89      .dwtag  DW_TAG_typedef
    1052                    .dwattr $C$DW$T$89, DW_AT_name("__uint32_t")
    1053                    .dwattr $C$DW$T$89, DW_AT_type(*$C$DW$T$13)
MSP430 Assembler PC v21.6.0 Sat Jan 22 14:19:11 2022

Copyright (c) 2003-2018 Texas Instruments Incorporated
C:\Users\d_oti\AppData\Local\Temp\{363B67F7-9DCD-452D-B47D-A969BDAED65D} PAGE   32

    1054                    .dwattr $C$DW$T$89, DW_AT_language(DW_LANG_C)
    1055                    .dwattr $C$DW$T$89, DW_AT_decl_file("C:/ti/ccs1110/ccs/tools/compiler/ti-cgt-msp430_21.6.0.LTS
    1056                    .dwattr $C$DW$T$89, DW_AT_decl_line(0x3b)
    1057                    .dwattr $C$DW$T$89, DW_AT_decl_column(0x18)
    1058            
    1059            $C$DW$T$90      .dwtag  DW_TAG_typedef
    1060                    .dwattr $C$DW$T$90, DW_AT_name("__clock_t")
    1061                    .dwattr $C$DW$T$90, DW_AT_type(*$C$DW$T$89)
    1062                    .dwattr $C$DW$T$90, DW_AT_language(DW_LANG_C)
    1063                    .dwattr $C$DW$T$90, DW_AT_decl_file("C:/ti/ccs1110/ccs/tools/compiler/ti-cgt-msp430_21.6.0.LTS
    1064                    .dwattr $C$DW$T$90, DW_AT_decl_line(0x4a)
    1065                    .dwattr $C$DW$T$90, DW_AT_decl_column(0x14)
    1066            
    1067            $C$DW$T$91      .dwtag  DW_TAG_typedef
    1068                    .dwattr $C$DW$T$91, DW_AT_name("__fflags_t")
    1069                    .dwattr $C$DW$T$91, DW_AT_type(*$C$DW$T$89)
    1070                    .dwattr $C$DW$T$91, DW_AT_language(DW_LANG_C)
    1071                    .dwattr $C$DW$T$91, DW_AT_decl_file("C:/ti/ccs1110/ccs/tools/compiler/ti-cgt-msp430_21.6.0.LTS
    1072                    .dwattr $C$DW$T$91, DW_AT_decl_line(0x32)
    1073                    .dwattr $C$DW$T$91, DW_AT_decl_column(0x14)
    1074            
    1075            $C$DW$T$92      .dwtag  DW_TAG_typedef
    1076                    .dwattr $C$DW$T$92, DW_AT_name("__fixpt_t")
    1077                    .dwattr $C$DW$T$92, DW_AT_type(*$C$DW$T$89)
    1078                    .dwattr $C$DW$T$92, DW_AT_language(DW_LANG_C)
    1079                    .dwattr $C$DW$T$92, DW_AT_decl_file("C:/ti/ccs1110/ccs/tools/compiler/ti-cgt-msp430_21.6.0.LTS
    1080                    .dwattr $C$DW$T$92, DW_AT_decl_line(0x81)
    1081                    .dwattr $C$DW$T$92, DW_AT_decl_column(0x14)
    1082            
    1083            $C$DW$T$93      .dwtag  DW_TAG_typedef
    1084                    .dwattr $C$DW$T$93, DW_AT_name("__gid_t")
    1085                    .dwattr $C$DW$T$93, DW_AT_type(*$C$DW$T$89)
    1086                    .dwattr $C$DW$T$93, DW_AT_language(DW_LANG_C)
    1087                    .dwattr $C$DW$T$93, DW_AT_decl_file("C:/ti/ccs1110/ccs/tools/compiler/ti-cgt-msp430_21.6.0.LTS
    1088                    .dwattr $C$DW$T$93, DW_AT_decl_line(0x35)
    1089                    .dwattr $C$DW$T$93, DW_AT_decl_column(0x14)
    1090            
    1091            $C$DW$T$94      .dwtag  DW_TAG_typedef
    1092                    .dwattr $C$DW$T$94, DW_AT_name("__socklen_t")
    1093                    .dwattr $C$DW$T$94, DW_AT_type(*$C$DW$T$89)
    1094                    .dwattr $C$DW$T$94, DW_AT_language(DW_LANG_C)
    1095                    .dwattr $C$DW$T$94, DW_AT_decl_file("C:/ti/ccs1110/ccs/tools/compiler/ti-cgt-msp430_21.6.0.LTS
    1096                    .dwattr $C$DW$T$94, DW_AT_decl_line(0x49)
    1097                    .dwattr $C$DW$T$94, DW_AT_decl_column(0x14)
    1098            
    1099            $C$DW$T$95      .dwtag  DW_TAG_typedef
    1100                    .dwattr $C$DW$T$95, DW_AT_name("__time_t")
    1101                    .dwattr $C$DW$T$95, DW_AT_type(*$C$DW$T$89)
    1102                    .dwattr $C$DW$T$95, DW_AT_language(DW_LANG_C)
    1103                    .dwattr $C$DW$T$95, DW_AT_decl_file("C:/ti/ccs1110/ccs/tools/compiler/ti-cgt-msp430_21.6.0.LTS
    1104                    .dwattr $C$DW$T$95, DW_AT_decl_line(0x66)
    1105                    .dwattr $C$DW$T$95, DW_AT_decl_column(0x19)
    1106            
    1107            $C$DW$T$96      .dwtag  DW_TAG_typedef
    1108                    .dwattr $C$DW$T$96, DW_AT_name("__uid_t")
MSP430 Assembler PC v21.6.0 Sat Jan 22 14:19:11 2022

Copyright (c) 2003-2018 Texas Instruments Incorporated
C:\Users\d_oti\AppData\Local\Temp\{363B67F7-9DCD-452D-B47D-A969BDAED65D} PAGE   33

    1109                    .dwattr $C$DW$T$96, DW_AT_type(*$C$DW$T$89)
    1110                    .dwattr $C$DW$T$96, DW_AT_language(DW_LANG_C)
    1111                    .dwattr $C$DW$T$96, DW_AT_decl_file("C:/ti/ccs1110/ccs/tools/compiler/ti-cgt-msp430_21.6.0.LTS
    1112                    .dwattr $C$DW$T$96, DW_AT_decl_line(0x4d)
    1113                    .dwattr $C$DW$T$96, DW_AT_decl_column(0x14)
    1114            
    1115            $C$DW$T$97      .dwtag  DW_TAG_typedef
    1116                    .dwattr $C$DW$T$97, DW_AT_name("__uint_fast32_t")
    1117                    .dwattr $C$DW$T$97, DW_AT_type(*$C$DW$T$89)
    1118                    .dwattr $C$DW$T$97, DW_AT_language(DW_LANG_C)
    1119                    .dwattr $C$DW$T$97, DW_AT_decl_file("C:/ti/ccs1110/ccs/tools/compiler/ti-cgt-msp430_21.6.0.LTS
    1120                    .dwattr $C$DW$T$97, DW_AT_decl_line(0x72)
    1121                    .dwattr $C$DW$T$97, DW_AT_decl_column(0x14)
    1122            
    1123            $C$DW$T$98      .dwtag  DW_TAG_typedef
    1124                    .dwattr $C$DW$T$98, DW_AT_name("__uint_least32_t")
    1125                    .dwattr $C$DW$T$98, DW_AT_type(*$C$DW$T$89)
    1126                    .dwattr $C$DW$T$98, DW_AT_language(DW_LANG_C)
    1127                    .dwattr $C$DW$T$98, DW_AT_decl_file("C:/ti/ccs1110/ccs/tools/compiler/ti-cgt-msp430_21.6.0.LTS
    1128                    .dwattr $C$DW$T$98, DW_AT_decl_line(0x76)
    1129                    .dwattr $C$DW$T$98, DW_AT_decl_column(0x14)
    1130            
    1131            $C$DW$T$99      .dwtag  DW_TAG_typedef
    1132                    .dwattr $C$DW$T$99, DW_AT_name("__char32_t")
    1133                    .dwattr $C$DW$T$99, DW_AT_type(*$C$DW$T$98)
    1134                    .dwattr $C$DW$T$99, DW_AT_language(DW_LANG_C)
    1135                    .dwattr $C$DW$T$99, DW_AT_decl_file("C:/ti/ccs1110/ccs/tools/compiler/ti-cgt-msp430_21.6.0.LTS
    1136                    .dwattr $C$DW$T$99, DW_AT_decl_line(0x72)
    1137                    .dwattr $C$DW$T$99, DW_AT_decl_column(0x1a)
    1138            
    1139            $C$DW$T$100     .dwtag  DW_TAG_typedef
    1140                    .dwattr $C$DW$T$100, DW_AT_name("__uintfptr_t")
    1141                    .dwattr $C$DW$T$100, DW_AT_type(*$C$DW$T$89)
    1142                    .dwattr $C$DW$T$100, DW_AT_language(DW_LANG_C)
    1143                    .dwattr $C$DW$T$100, DW_AT_decl_file("C:/ti/ccs1110/ccs/tools/compiler/ti-cgt-msp430_21.6.0.LT
    1144                    .dwattr $C$DW$T$100, DW_AT_decl_line(0x68)
    1145                    .dwattr $C$DW$T$100, DW_AT_decl_column(0x14)
    1146            
    1147            $C$DW$T$101     .dwtag  DW_TAG_typedef
    1148                    .dwattr $C$DW$T$101, DW_AT_name("__vm_offset_t")
    1149                    .dwattr $C$DW$T$101, DW_AT_type(*$C$DW$T$89)
    1150                    .dwattr $C$DW$T$101, DW_AT_language(DW_LANG_C)
    1151                    .dwattr $C$DW$T$101, DW_AT_decl_file("C:/ti/ccs1110/ccs/tools/compiler/ti-cgt-msp430_21.6.0.LT
    1152                    .dwattr $C$DW$T$101, DW_AT_decl_line(0x79)
    1153                    .dwattr $C$DW$T$101, DW_AT_decl_column(0x14)
    1154            
    1155            $C$DW$T$102     .dwtag  DW_TAG_typedef
    1156                    .dwattr $C$DW$T$102, DW_AT_name("__vm_paddr_t")
    1157                    .dwattr $C$DW$T$102, DW_AT_type(*$C$DW$T$89)
    1158                    .dwattr $C$DW$T$102, DW_AT_language(DW_LANG_C)
    1159                    .dwattr $C$DW$T$102, DW_AT_decl_file("C:/ti/ccs1110/ccs/tools/compiler/ti-cgt-msp430_21.6.0.LT
    1160                    .dwattr $C$DW$T$102, DW_AT_decl_line(0x7a)
    1161                    .dwattr $C$DW$T$102, DW_AT_decl_column(0x14)
    1162            
    1163            $C$DW$T$103     .dwtag  DW_TAG_typedef
MSP430 Assembler PC v21.6.0 Sat Jan 22 14:19:11 2022

Copyright (c) 2003-2018 Texas Instruments Incorporated
C:\Users\d_oti\AppData\Local\Temp\{363B67F7-9DCD-452D-B47D-A969BDAED65D} PAGE   34

    1164                    .dwattr $C$DW$T$103, DW_AT_name("__vm_size_t")
    1165                    .dwattr $C$DW$T$103, DW_AT_type(*$C$DW$T$89)
    1166                    .dwattr $C$DW$T$103, DW_AT_language(DW_LANG_C)
    1167                    .dwattr $C$DW$T$103, DW_AT_decl_file("C:/ti/ccs1110/ccs/tools/compiler/ti-cgt-msp430_21.6.0.LT
    1168                    .dwattr $C$DW$T$103, DW_AT_decl_line(0x7b)
    1169                    .dwattr $C$DW$T$103, DW_AT_decl_column(0x14)
    1170            
    1171            $C$DW$T$14      .dwtag  DW_TAG_base_type
    1172                    .dwattr $C$DW$T$14, DW_AT_encoding(DW_ATE_signed)
    1173                    .dwattr $C$DW$T$14, DW_AT_name("long long")
    1174                    .dwattr $C$DW$T$14, DW_AT_byte_size(0x08)
    1175            
    1176            $C$DW$T$104     .dwtag  DW_TAG_typedef
    1177                    .dwattr $C$DW$T$104, DW_AT_name("__int64_t")
    1178                    .dwattr $C$DW$T$104, DW_AT_type(*$C$DW$T$14)
    1179                    .dwattr $C$DW$T$104, DW_AT_language(DW_LANG_C)
    1180                    .dwattr $C$DW$T$104, DW_AT_decl_file("C:/ti/ccs1110/ccs/tools/compiler/ti-cgt-msp430_21.6.0.LT
    1181                    .dwattr $C$DW$T$104, DW_AT_decl_line(0x40)
    1182                    .dwattr $C$DW$T$104, DW_AT_decl_column(0x14)
    1183            
    1184            $C$DW$T$105     .dwtag  DW_TAG_typedef
    1185                    .dwattr $C$DW$T$105, DW_AT_name("__blkcnt_t")
    1186                    .dwattr $C$DW$T$105, DW_AT_type(*$C$DW$T$104)
    1187                    .dwattr $C$DW$T$105, DW_AT_language(DW_LANG_C)
    1188                    .dwattr $C$DW$T$105, DW_AT_decl_file("C:/ti/ccs1110/ccs/tools/compiler/ti-cgt-msp430_21.6.0.LT
    1189                    .dwattr $C$DW$T$105, DW_AT_decl_line(0x30)
    1190                    .dwattr $C$DW$T$105, DW_AT_decl_column(0x13)
    1191            
    1192            $C$DW$T$106     .dwtag  DW_TAG_typedef
    1193                    .dwattr $C$DW$T$106, DW_AT_name("__id_t")
    1194                    .dwattr $C$DW$T$106, DW_AT_type(*$C$DW$T$104)
    1195                    .dwattr $C$DW$T$106, DW_AT_language(DW_LANG_C)
    1196                    .dwattr $C$DW$T$106, DW_AT_decl_file("C:/ti/ccs1110/ccs/tools/compiler/ti-cgt-msp430_21.6.0.LT
    1197                    .dwattr $C$DW$T$106, DW_AT_decl_line(0x36)
    1198                    .dwattr $C$DW$T$106, DW_AT_decl_column(0x13)
    1199            
    1200            $C$DW$T$107     .dwtag  DW_TAG_typedef
    1201                    .dwattr $C$DW$T$107, DW_AT_name("__int_fast64_t")
    1202                    .dwattr $C$DW$T$107, DW_AT_type(*$C$DW$T$104)
    1203                    .dwattr $C$DW$T$107, DW_AT_language(DW_LANG_C)
    1204                    .dwattr $C$DW$T$107, DW_AT_decl_file("C:/ti/ccs1110/ccs/tools/compiler/ti-cgt-msp430_21.6.0.LT
    1205                    .dwattr $C$DW$T$107, DW_AT_decl_line(0x59)
    1206                    .dwattr $C$DW$T$107, DW_AT_decl_column(0x13)
    1207            
    1208            $C$DW$T$108     .dwtag  DW_TAG_typedef
    1209                    .dwattr $C$DW$T$108, DW_AT_name("__int_least64_t")
    1210                    .dwattr $C$DW$T$108, DW_AT_type(*$C$DW$T$104)
    1211                    .dwattr $C$DW$T$108, DW_AT_language(DW_LANG_C)
    1212                    .dwattr $C$DW$T$108, DW_AT_decl_file("C:/ti/ccs1110/ccs/tools/compiler/ti-cgt-msp430_21.6.0.LT
    1213                    .dwattr $C$DW$T$108, DW_AT_decl_line(0x5d)
    1214                    .dwattr $C$DW$T$108, DW_AT_decl_column(0x13)
    1215            
    1216            $C$DW$T$109     .dwtag  DW_TAG_typedef
    1217                    .dwattr $C$DW$T$109, DW_AT_name("__intmax_t")
    1218                    .dwattr $C$DW$T$109, DW_AT_type(*$C$DW$T$104)
MSP430 Assembler PC v21.6.0 Sat Jan 22 14:19:11 2022

Copyright (c) 2003-2018 Texas Instruments Incorporated
C:\Users\d_oti\AppData\Local\Temp\{363B67F7-9DCD-452D-B47D-A969BDAED65D} PAGE   35

    1219                    .dwattr $C$DW$T$109, DW_AT_language(DW_LANG_C)
    1220                    .dwattr $C$DW$T$109, DW_AT_decl_file("C:/ti/ccs1110/ccs/tools/compiler/ti-cgt-msp430_21.6.0.LT
    1221                    .dwattr $C$DW$T$109, DW_AT_decl_line(0x4f)
    1222                    .dwattr $C$DW$T$109, DW_AT_decl_column(0x13)
    1223            
    1224            $C$DW$T$110     .dwtag  DW_TAG_typedef
    1225                    .dwattr $C$DW$T$110, DW_AT_name("__off64_t")
    1226                    .dwattr $C$DW$T$110, DW_AT_type(*$C$DW$T$104)
    1227                    .dwattr $C$DW$T$110, DW_AT_language(DW_LANG_C)
    1228                    .dwattr $C$DW$T$110, DW_AT_decl_file("C:/ti/ccs1110/ccs/tools/compiler/ti-cgt-msp430_21.6.0.LT
    1229                    .dwattr $C$DW$T$110, DW_AT_decl_line(0x3f)
    1230                    .dwattr $C$DW$T$110, DW_AT_decl_column(0x13)
    1231            
    1232            $C$DW$T$111     .dwtag  DW_TAG_typedef
    1233                    .dwattr $C$DW$T$111, DW_AT_name("__rlim_t")
    1234                    .dwattr $C$DW$T$111, DW_AT_type(*$C$DW$T$104)
    1235                    .dwattr $C$DW$T$111, DW_AT_language(DW_LANG_C)
    1236                    .dwattr $C$DW$T$111, DW_AT_decl_file("C:/ti/ccs1110/ccs/tools/compiler/ti-cgt-msp430_21.6.0.LT
    1237                    .dwattr $C$DW$T$111, DW_AT_decl_line(0x41)
    1238                    .dwattr $C$DW$T$111, DW_AT_decl_column(0x13)
    1239            
    1240            $C$DW$T$15      .dwtag  DW_TAG_base_type
    1241                    .dwattr $C$DW$T$15, DW_AT_encoding(DW_ATE_unsigned)
    1242                    .dwattr $C$DW$T$15, DW_AT_name("unsigned long long")
    1243                    .dwattr $C$DW$T$15, DW_AT_byte_size(0x08)
    1244            
    1245            $C$DW$T$112     .dwtag  DW_TAG_typedef
    1246                    .dwattr $C$DW$T$112, DW_AT_name("__uint64_t")
    1247                    .dwattr $C$DW$T$112, DW_AT_type(*$C$DW$T$15)
    1248                    .dwattr $C$DW$T$112, DW_AT_language(DW_LANG_C)
    1249                    .dwattr $C$DW$T$112, DW_AT_decl_file("C:/ti/ccs1110/ccs/tools/compiler/ti-cgt-msp430_21.6.0.LT
    1250                    .dwattr $C$DW$T$112, DW_AT_decl_line(0x45)
    1251                    .dwattr $C$DW$T$112, DW_AT_decl_column(0x1c)
    1252            
    1253            $C$DW$T$113     .dwtag  DW_TAG_typedef
    1254                    .dwattr $C$DW$T$113, DW_AT_name("__dev_t")
    1255                    .dwattr $C$DW$T$113, DW_AT_type(*$C$DW$T$112)
    1256                    .dwattr $C$DW$T$113, DW_AT_language(DW_LANG_C)
    1257                    .dwattr $C$DW$T$113, DW_AT_decl_file("C:/ti/ccs1110/ccs/tools/compiler/ti-cgt-msp430_21.6.0.LT
    1258                    .dwattr $C$DW$T$113, DW_AT_decl_line(0x7f)
    1259                    .dwattr $C$DW$T$113, DW_AT_decl_column(0x14)
    1260            
    1261            $C$DW$T$114     .dwtag  DW_TAG_typedef
    1262                    .dwattr $C$DW$T$114, DW_AT_name("__fsblkcnt_t")
    1263                    .dwattr $C$DW$T$114, DW_AT_type(*$C$DW$T$112)
    1264                    .dwattr $C$DW$T$114, DW_AT_language(DW_LANG_C)
    1265                    .dwattr $C$DW$T$114, DW_AT_decl_file("C:/ti/ccs1110/ccs/tools/compiler/ti-cgt-msp430_21.6.0.LT
    1266                    .dwattr $C$DW$T$114, DW_AT_decl_line(0x33)
    1267                    .dwattr $C$DW$T$114, DW_AT_decl_column(0x14)
    1268            
    1269            $C$DW$T$115     .dwtag  DW_TAG_typedef
    1270                    .dwattr $C$DW$T$115, DW_AT_name("__fsfilcnt_t")
    1271                    .dwattr $C$DW$T$115, DW_AT_type(*$C$DW$T$112)
    1272                    .dwattr $C$DW$T$115, DW_AT_language(DW_LANG_C)
    1273                    .dwattr $C$DW$T$115, DW_AT_decl_file("C:/ti/ccs1110/ccs/tools/compiler/ti-cgt-msp430_21.6.0.LT
MSP430 Assembler PC v21.6.0 Sat Jan 22 14:19:11 2022

Copyright (c) 2003-2018 Texas Instruments Incorporated
C:\Users\d_oti\AppData\Local\Temp\{363B67F7-9DCD-452D-B47D-A969BDAED65D} PAGE   36

    1274                    .dwattr $C$DW$T$115, DW_AT_decl_line(0x34)
    1275                    .dwattr $C$DW$T$115, DW_AT_decl_column(0x14)
    1276            
    1277            $C$DW$T$116     .dwtag  DW_TAG_typedef
    1278                    .dwattr $C$DW$T$116, DW_AT_name("__ino_t")
    1279                    .dwattr $C$DW$T$116, DW_AT_type(*$C$DW$T$112)
    1280                    .dwattr $C$DW$T$116, DW_AT_language(DW_LANG_C)
    1281                    .dwattr $C$DW$T$116, DW_AT_decl_file("C:/ti/ccs1110/ccs/tools/compiler/ti-cgt-msp430_21.6.0.LT
    1282                    .dwattr $C$DW$T$116, DW_AT_decl_line(0x37)
    1283                    .dwattr $C$DW$T$116, DW_AT_decl_column(0x14)
    1284            
    1285            $C$DW$T$117     .dwtag  DW_TAG_typedef
    1286                    .dwattr $C$DW$T$117, DW_AT_name("__nlink_t")
    1287                    .dwattr $C$DW$T$117, DW_AT_type(*$C$DW$T$112)
    1288                    .dwattr $C$DW$T$117, DW_AT_language(DW_LANG_C)
    1289                    .dwattr $C$DW$T$117, DW_AT_decl_file("C:/ti/ccs1110/ccs/tools/compiler/ti-cgt-msp430_21.6.0.LT
    1290                    .dwattr $C$DW$T$117, DW_AT_decl_line(0x3d)
    1291                    .dwattr $C$DW$T$117, DW_AT_decl_column(0x14)
    1292            
    1293            $C$DW$T$118     .dwtag  DW_TAG_typedef
    1294                    .dwattr $C$DW$T$118, DW_AT_name("__uint_fast64_t")
    1295                    .dwattr $C$DW$T$118, DW_AT_type(*$C$DW$T$112)
    1296                    .dwattr $C$DW$T$118, DW_AT_language(DW_LANG_C)
    1297                    .dwattr $C$DW$T$118, DW_AT_decl_file("C:/ti/ccs1110/ccs/tools/compiler/ti-cgt-msp430_21.6.0.LT
    1298                    .dwattr $C$DW$T$118, DW_AT_decl_line(0x73)
    1299                    .dwattr $C$DW$T$118, DW_AT_decl_column(0x14)
    1300            
    1301            $C$DW$T$119     .dwtag  DW_TAG_typedef
    1302                    .dwattr $C$DW$T$119, DW_AT_name("__uint_least64_t")
    1303                    .dwattr $C$DW$T$119, DW_AT_type(*$C$DW$T$112)
    1304                    .dwattr $C$DW$T$119, DW_AT_language(DW_LANG_C)
    1305                    .dwattr $C$DW$T$119, DW_AT_decl_file("C:/ti/ccs1110/ccs/tools/compiler/ti-cgt-msp430_21.6.0.LT
    1306                    .dwattr $C$DW$T$119, DW_AT_decl_line(0x77)
    1307                    .dwattr $C$DW$T$119, DW_AT_decl_column(0x14)
    1308            
    1309            $C$DW$T$120     .dwtag  DW_TAG_typedef
    1310                    .dwattr $C$DW$T$120, DW_AT_name("__uintmax_t")
    1311                    .dwattr $C$DW$T$120, DW_AT_type(*$C$DW$T$112)
    1312                    .dwattr $C$DW$T$120, DW_AT_language(DW_LANG_C)
    1313                    .dwattr $C$DW$T$120, DW_AT_decl_file("C:/ti/ccs1110/ccs/tools/compiler/ti-cgt-msp430_21.6.0.LT
    1314                    .dwattr $C$DW$T$120, DW_AT_decl_line(0x69)
    1315                    .dwattr $C$DW$T$120, DW_AT_decl_column(0x14)
    1316            
    1317            $C$DW$T$121     .dwtag  DW_TAG_typedef
    1318                    .dwattr $C$DW$T$121, DW_AT_name("__rman_res_t")
    1319                    .dwattr $C$DW$T$121, DW_AT_type(*$C$DW$T$120)
    1320                    .dwattr $C$DW$T$121, DW_AT_language(DW_LANG_C)
    1321                    .dwattr $C$DW$T$121, DW_AT_decl_file("C:/ti/ccs1110/ccs/tools/compiler/ti-cgt-msp430_21.6.0.LT
    1322                    .dwattr $C$DW$T$121, DW_AT_decl_line(0x9a)
    1323                    .dwattr $C$DW$T$121, DW_AT_decl_column(0x19)
    1324            
    1325            $C$DW$T$16      .dwtag  DW_TAG_base_type
    1326                    .dwattr $C$DW$T$16, DW_AT_encoding(DW_ATE_float)
    1327                    .dwattr $C$DW$T$16, DW_AT_name("float")
    1328                    .dwattr $C$DW$T$16, DW_AT_byte_size(0x04)
MSP430 Assembler PC v21.6.0 Sat Jan 22 14:19:11 2022

Copyright (c) 2003-2018 Texas Instruments Incorporated
C:\Users\d_oti\AppData\Local\Temp\{363B67F7-9DCD-452D-B47D-A969BDAED65D} PAGE   37

    1329            
    1330            $C$DW$T$122     .dwtag  DW_TAG_typedef
    1331                    .dwattr $C$DW$T$122, DW_AT_name("__float_t")
    1332                    .dwattr $C$DW$T$122, DW_AT_type(*$C$DW$T$16)
    1333                    .dwattr $C$DW$T$122, DW_AT_language(DW_LANG_C)
    1334                    .dwattr $C$DW$T$122, DW_AT_decl_file("C:/ti/ccs1110/ccs/tools/compiler/ti-cgt-msp430_21.6.0.LT
    1335                    .dwattr $C$DW$T$122, DW_AT_decl_line(0x4d)
    1336                    .dwattr $C$DW$T$122, DW_AT_decl_column(0x10)
    1337            
    1338            $C$DW$T$17      .dwtag  DW_TAG_base_type
    1339                    .dwattr $C$DW$T$17, DW_AT_encoding(DW_ATE_float)
    1340                    .dwattr $C$DW$T$17, DW_AT_name("double")
    1341                    .dwattr $C$DW$T$17, DW_AT_byte_size(0x08)
    1342            
    1343            $C$DW$T$123     .dwtag  DW_TAG_typedef
    1344                    .dwattr $C$DW$T$123, DW_AT_name("__double_t")
    1345                    .dwattr $C$DW$T$123, DW_AT_type(*$C$DW$T$17)
    1346                    .dwattr $C$DW$T$123, DW_AT_language(DW_LANG_C)
    1347                    .dwattr $C$DW$T$123, DW_AT_decl_file("C:/ti/ccs1110/ccs/tools/compiler/ti-cgt-msp430_21.6.0.LT
    1348                    .dwattr $C$DW$T$123, DW_AT_decl_line(0x4c)
    1349                    .dwattr $C$DW$T$123, DW_AT_decl_column(0x11)
    1350            
    1351            $C$DW$T$18      .dwtag  DW_TAG_base_type
    1352                    .dwattr $C$DW$T$18, DW_AT_encoding(DW_ATE_float)
    1353                    .dwattr $C$DW$T$18, DW_AT_name("long double")
    1354                    .dwattr $C$DW$T$18, DW_AT_byte_size(0x08)
    1355            
    1356            $C$DW$T$37      .dwtag  DW_TAG_const_type
    1357                    .dwattr $C$DW$T$37, DW_AT_type(*$C$DW$T$6)
    1358            
    1359            $C$DW$T$38      .dwtag  DW_TAG_pointer_type
    1360                    .dwattr $C$DW$T$38, DW_AT_type(*$C$DW$T$37)
    1361                    .dwattr $C$DW$T$38, DW_AT_address_class(0x10)
    1362            
    1363            $C$DW$T$39      .dwtag  DW_TAG_restrict_type
    1364                    .dwattr $C$DW$T$39, DW_AT_type(*$C$DW$T$38)
    1365            
    1366            $C$DW$T$124     .dwtag  DW_TAG_pointer_type
    1367                    .dwattr $C$DW$T$124, DW_AT_type(*$C$DW$T$6)
    1368                    .dwattr $C$DW$T$124, DW_AT_address_class(0x10)
    1369            
    1370            $C$DW$T$125     .dwtag  DW_TAG_typedef
    1371                    .dwattr $C$DW$T$125, DW_AT_name("__va_list")
    1372                    .dwattr $C$DW$T$125, DW_AT_type(*$C$DW$T$124)
    1373                    .dwattr $C$DW$T$125, DW_AT_language(DW_LANG_C)
    1374                    .dwattr $C$DW$T$125, DW_AT_decl_file("C:/ti/ccs1110/ccs/tools/compiler/ti-cgt-msp430_21.6.0.LT
    1375                    .dwattr $C$DW$T$125, DW_AT_decl_line(0x92)
    1376                    .dwattr $C$DW$T$125, DW_AT_decl_column(0x0f)
    1377            
    1378            $C$DW$T$126     .dwtag  DW_TAG_typedef
    1379                    .dwattr $C$DW$T$126, DW_AT_name("va_list")
    1380                    .dwattr $C$DW$T$126, DW_AT_type(*$C$DW$T$125)
    1381                    .dwattr $C$DW$T$126, DW_AT_language(DW_LANG_C)
    1382                    .dwattr $C$DW$T$126, DW_AT_decl_file("C:/ti/ccs1110/ccs/tools/compiler/ti-cgt-msp430_21.6.0.LT
    1383                    .dwattr $C$DW$T$126, DW_AT_decl_line(0x33)
MSP430 Assembler PC v21.6.0 Sat Jan 22 14:19:11 2022

Copyright (c) 2003-2018 Texas Instruments Incorporated
C:\Users\d_oti\AppData\Local\Temp\{363B67F7-9DCD-452D-B47D-A969BDAED65D} PAGE   38

    1384                    .dwattr $C$DW$T$126, DW_AT_decl_column(0x13)
    1385            
    1386            
    1387            $C$DW$T$19      .dwtag  DW_TAG_structure_type
    1388                    .dwattr $C$DW$T$19, DW_AT_name("__mq")
    1389                    .dwattr $C$DW$T$19, DW_AT_declaration
    1390                    .dwattr $C$DW$T$19, DW_AT_decl_file("C:/ti/ccs1110/ccs/tools/compiler/ti-cgt-msp430_21.6.0.LTS
    1391                    .dwattr $C$DW$T$19, DW_AT_decl_line(0x4c)
    1392                    .dwattr $C$DW$T$19, DW_AT_decl_column(0x10)
    1393                    .dwendtag $C$DW$T$19
    1394            
    1395            $C$DW$T$127     .dwtag  DW_TAG_pointer_type
    1396                    .dwattr $C$DW$T$127, DW_AT_type(*$C$DW$T$19)
    1397                    .dwattr $C$DW$T$127, DW_AT_address_class(0x10)
    1398            
    1399            $C$DW$T$128     .dwtag  DW_TAG_typedef
    1400                    .dwattr $C$DW$T$128, DW_AT_name("__mqd_t")
    1401                    .dwattr $C$DW$T$128, DW_AT_type(*$C$DW$T$127)
    1402                    .dwattr $C$DW$T$128, DW_AT_language(DW_LANG_C)
    1403                    .dwattr $C$DW$T$128, DW_AT_decl_file("C:/ti/ccs1110/ccs/tools/compiler/ti-cgt-msp430_21.6.0.LT
    1404                    .dwattr $C$DW$T$128, DW_AT_decl_line(0x4c)
    1405                    .dwattr $C$DW$T$128, DW_AT_decl_column(0x16)
    1406            
    1407            
    1408            $C$DW$T$23      .dwtag  DW_TAG_structure_type
    1409                    .dwattr $C$DW$T$23, DW_AT_name("__sFILE")
    1410                    .dwattr $C$DW$T$23, DW_AT_byte_size(0x0c)
    1411            $C$DW$35        .dwtag  DW_TAG_member
    1412                    .dwattr $C$DW$35, DW_AT_type(*$C$DW$T$10)
    1413                    .dwattr $C$DW$35, DW_AT_name("fd")
    1414                    .dwattr $C$DW$35, DW_AT_TI_symbol_name("fd")
    1415                    .dwattr $C$DW$35, DW_AT_data_member_location[DW_OP_plus_uconst 0x0]
    1416                    .dwattr $C$DW$35, DW_AT_accessibility(DW_ACCESS_public)
    1417                    .dwattr $C$DW$35, DW_AT_decl_file("C:/ti/ccs1110/ccs/tools/compiler/ti-cgt-msp430_21.6.0.LTS/i
    1418                    .dwattr $C$DW$35, DW_AT_decl_line(0x52)
    1419                    .dwattr $C$DW$35, DW_AT_decl_column(0x0b)
    1420            
    1421            $C$DW$36        .dwtag  DW_TAG_member
    1422                    .dwattr $C$DW$36, DW_AT_type(*$C$DW$T$22)
    1423                    .dwattr $C$DW$36, DW_AT_name("buf")
    1424                    .dwattr $C$DW$36, DW_AT_TI_symbol_name("buf")
    1425                    .dwattr $C$DW$36, DW_AT_data_member_location[DW_OP_plus_uconst 0x2]
    1426                    .dwattr $C$DW$36, DW_AT_accessibility(DW_ACCESS_public)
    1427                    .dwattr $C$DW$36, DW_AT_decl_file("C:/ti/ccs1110/ccs/tools/compiler/ti-cgt-msp430_21.6.0.LTS/i
    1428                    .dwattr $C$DW$36, DW_AT_decl_line(0x53)
    1429                    .dwattr $C$DW$36, DW_AT_decl_column(0x16)
    1430            
    1431            $C$DW$37        .dwtag  DW_TAG_member
    1432                    .dwattr $C$DW$37, DW_AT_type(*$C$DW$T$22)
    1433                    .dwattr $C$DW$37, DW_AT_name("pos")
    1434                    .dwattr $C$DW$37, DW_AT_TI_symbol_name("pos")
    1435                    .dwattr $C$DW$37, DW_AT_data_member_location[DW_OP_plus_uconst 0x4]
    1436                    .dwattr $C$DW$37, DW_AT_accessibility(DW_ACCESS_public)
    1437                    .dwattr $C$DW$37, DW_AT_decl_file("C:/ti/ccs1110/ccs/tools/compiler/ti-cgt-msp430_21.6.0.LTS/i
    1438                    .dwattr $C$DW$37, DW_AT_decl_line(0x54)
MSP430 Assembler PC v21.6.0 Sat Jan 22 14:19:11 2022

Copyright (c) 2003-2018 Texas Instruments Incorporated
C:\Users\d_oti\AppData\Local\Temp\{363B67F7-9DCD-452D-B47D-A969BDAED65D} PAGE   39

    1439                    .dwattr $C$DW$37, DW_AT_decl_column(0x16)
    1440            
    1441            $C$DW$38        .dwtag  DW_TAG_member
    1442                    .dwattr $C$DW$38, DW_AT_type(*$C$DW$T$22)
    1443                    .dwattr $C$DW$38, DW_AT_name("bufend")
    1444                    .dwattr $C$DW$38, DW_AT_TI_symbol_name("bufend")
    1445                    .dwattr $C$DW$38, DW_AT_data_member_location[DW_OP_plus_uconst 0x6]
    1446                    .dwattr $C$DW$38, DW_AT_accessibility(DW_ACCESS_public)
    1447                    .dwattr $C$DW$38, DW_AT_decl_file("C:/ti/ccs1110/ccs/tools/compiler/ti-cgt-msp430_21.6.0.LTS/i
    1448                    .dwattr $C$DW$38, DW_AT_decl_line(0x55)
    1449                    .dwattr $C$DW$38, DW_AT_decl_column(0x16)
    1450            
    1451            $C$DW$39        .dwtag  DW_TAG_member
    1452                    .dwattr $C$DW$39, DW_AT_type(*$C$DW$T$22)
    1453                    .dwattr $C$DW$39, DW_AT_name("buff_stop")
    1454                    .dwattr $C$DW$39, DW_AT_TI_symbol_name("buff_stop")
    1455                    .dwattr $C$DW$39, DW_AT_data_member_location[DW_OP_plus_uconst 0x8]
    1456                    .dwattr $C$DW$39, DW_AT_accessibility(DW_ACCESS_public)
    1457                    .dwattr $C$DW$39, DW_AT_decl_file("C:/ti/ccs1110/ccs/tools/compiler/ti-cgt-msp430_21.6.0.LTS/i
    1458                    .dwattr $C$DW$39, DW_AT_decl_line(0x56)
    1459                    .dwattr $C$DW$39, DW_AT_decl_column(0x16)
    1460            
    1461            $C$DW$40        .dwtag  DW_TAG_member
    1462                    .dwattr $C$DW$40, DW_AT_type(*$C$DW$T$11)
    1463                    .dwattr $C$DW$40, DW_AT_name("flags")
    1464                    .dwattr $C$DW$40, DW_AT_TI_symbol_name("flags")
    1465                    .dwattr $C$DW$40, DW_AT_data_member_location[DW_OP_plus_uconst 0xa]
    1466                    .dwattr $C$DW$40, DW_AT_accessibility(DW_ACCESS_public)
    1467                    .dwattr $C$DW$40, DW_AT_decl_file("C:/ti/ccs1110/ccs/tools/compiler/ti-cgt-msp430_21.6.0.LTS/i
    1468                    .dwattr $C$DW$40, DW_AT_decl_line(0x57)
    1469                    .dwattr $C$DW$40, DW_AT_decl_column(0x16)
    1470            
    1471                    .dwattr $C$DW$T$23, DW_AT_decl_file("C:/ti/ccs1110/ccs/tools/compiler/ti-cgt-msp430_21.6.0.LTS
    1472                    .dwattr $C$DW$T$23, DW_AT_decl_line(0x51)
    1473                    .dwattr $C$DW$T$23, DW_AT_decl_column(0x08)
    1474                    .dwendtag $C$DW$T$23
    1475            
    1476            $C$DW$T$129     .dwtag  DW_TAG_typedef
    1477                    .dwattr $C$DW$T$129, DW_AT_name("FILE")
    1478                    .dwattr $C$DW$T$129, DW_AT_type(*$C$DW$T$23)
    1479                    .dwattr $C$DW$T$129, DW_AT_language(DW_LANG_C)
    1480                    .dwattr $C$DW$T$129, DW_AT_decl_file("C:/ti/ccs1110/ccs/tools/compiler/ti-cgt-msp430_21.6.0.LT
    1481                    .dwattr $C$DW$T$129, DW_AT_decl_line(0x5c)
    1482                    .dwattr $C$DW$T$129, DW_AT_decl_column(0x18)
    1483            
    1484            
    1485            $C$DW$T$20      .dwtag  DW_TAG_structure_type
    1486                    .dwattr $C$DW$T$20, DW_AT_name("__timer")
    1487                    .dwattr $C$DW$T$20, DW_AT_declaration
    1488                    .dwattr $C$DW$T$20, DW_AT_decl_file("C:/ti/ccs1110/ccs/tools/compiler/ti-cgt-msp430_21.6.0.LTS
    1489                    .dwattr $C$DW$T$20, DW_AT_decl_line(0x4b)
    1490                    .dwattr $C$DW$T$20, DW_AT_decl_column(0x10)
    1491                    .dwendtag $C$DW$T$20
    1492            
    1493            $C$DW$T$130     .dwtag  DW_TAG_pointer_type
MSP430 Assembler PC v21.6.0 Sat Jan 22 14:19:11 2022

Copyright (c) 2003-2018 Texas Instruments Incorporated
C:\Users\d_oti\AppData\Local\Temp\{363B67F7-9DCD-452D-B47D-A969BDAED65D} PAGE   40

    1494                    .dwattr $C$DW$T$130, DW_AT_type(*$C$DW$T$20)
    1495                    .dwattr $C$DW$T$130, DW_AT_address_class(0x10)
    1496            
    1497            $C$DW$T$131     .dwtag  DW_TAG_typedef
    1498                    .dwattr $C$DW$T$131, DW_AT_name("__timer_t")
    1499                    .dwattr $C$DW$T$131, DW_AT_type(*$C$DW$T$130)
    1500                    .dwattr $C$DW$T$131, DW_AT_language(DW_LANG_C)
    1501                    .dwattr $C$DW$T$131, DW_AT_decl_file("C:/ti/ccs1110/ccs/tools/compiler/ti-cgt-msp430_21.6.0.LT
    1502                    .dwattr $C$DW$T$131, DW_AT_decl_line(0x4b)
    1503                    .dwattr $C$DW$T$131, DW_AT_decl_column(0x19)
    1504            
    1505                    .dwattr $C$DW$CU, DW_AT_language(DW_LANG_C)
    1506            
    1507            ;***************************************************************
    1508            ;* DWARF CIE ENTRIES                                           *
    1509            ;***************************************************************
    1510            
    1511            $C$DW$CIE       .dwcie 16
    1512                    .dwcfi  cfa_register, 1
    1513                    .dwcfi  cfa_offset, 0
    1514                    .dwcfi  same_value, 0
    1515                    .dwcfi  same_value, 1
    1516                    .dwcfi  same_value, 3
    1517                    .dwcfi  same_value, 4
    1518                    .dwcfi  same_value, 5
    1519                    .dwcfi  same_value, 6
    1520                    .dwcfi  same_value, 7
    1521                    .dwcfi  same_value, 8
    1522                    .dwcfi  same_value, 9
    1523                    .dwcfi  same_value, 10
    1524                    .dwendentry
    1525            
    1526            ;***************************************************************
    1527            ;* DWARF REGISTER MAP                                          *
    1528            ;***************************************************************
    1529            
    1530            $C$DW$41        .dwtag  DW_TAG_TI_assign_register
    1531                    .dwattr $C$DW$41, DW_AT_name("PC")
    1532                    .dwattr $C$DW$41, DW_AT_location[DW_OP_reg0]
    1533            
    1534            $C$DW$42        .dwtag  DW_TAG_TI_assign_register
    1535                    .dwattr $C$DW$42, DW_AT_name("SP")
    1536                    .dwattr $C$DW$42, DW_AT_location[DW_OP_reg1]
    1537            
    1538            $C$DW$43        .dwtag  DW_TAG_TI_assign_register
    1539                    .dwattr $C$DW$43, DW_AT_name("SR")
    1540                    .dwattr $C$DW$43, DW_AT_location[DW_OP_reg2]
    1541            
    1542            $C$DW$44        .dwtag  DW_TAG_TI_assign_register
    1543                    .dwattr $C$DW$44, DW_AT_name("CG")
    1544                    .dwattr $C$DW$44, DW_AT_location[DW_OP_reg3]
    1545            
    1546            $C$DW$45        .dwtag  DW_TAG_TI_assign_register
    1547                    .dwattr $C$DW$45, DW_AT_name("r4")
    1548                    .dwattr $C$DW$45, DW_AT_location[DW_OP_reg4]
MSP430 Assembler PC v21.6.0 Sat Jan 22 14:19:11 2022

Copyright (c) 2003-2018 Texas Instruments Incorporated
C:\Users\d_oti\AppData\Local\Temp\{363B67F7-9DCD-452D-B47D-A969BDAED65D} PAGE   41

    1549            
    1550            $C$DW$46        .dwtag  DW_TAG_TI_assign_register
    1551                    .dwattr $C$DW$46, DW_AT_name("r5")
    1552                    .dwattr $C$DW$46, DW_AT_location[DW_OP_reg5]
    1553            
    1554            $C$DW$47        .dwtag  DW_TAG_TI_assign_register
    1555                    .dwattr $C$DW$47, DW_AT_name("r6")
    1556                    .dwattr $C$DW$47, DW_AT_location[DW_OP_reg6]
    1557            
    1558            $C$DW$48        .dwtag  DW_TAG_TI_assign_register
    1559                    .dwattr $C$DW$48, DW_AT_name("r7")
    1560                    .dwattr $C$DW$48, DW_AT_location[DW_OP_reg7]
    1561            
    1562            $C$DW$49        .dwtag  DW_TAG_TI_assign_register
    1563                    .dwattr $C$DW$49, DW_AT_name("r8")
    1564                    .dwattr $C$DW$49, DW_AT_location[DW_OP_reg8]
    1565            
    1566            $C$DW$50        .dwtag  DW_TAG_TI_assign_register
    1567                    .dwattr $C$DW$50, DW_AT_name("r9")
    1568                    .dwattr $C$DW$50, DW_AT_location[DW_OP_reg9]
    1569            
    1570            $C$DW$51        .dwtag  DW_TAG_TI_assign_register
    1571                    .dwattr $C$DW$51, DW_AT_name("r10")
    1572                    .dwattr $C$DW$51, DW_AT_location[DW_OP_reg10]
    1573            
    1574            $C$DW$52        .dwtag  DW_TAG_TI_assign_register
    1575                    .dwattr $C$DW$52, DW_AT_name("r11")
    1576                    .dwattr $C$DW$52, DW_AT_location[DW_OP_reg11]
    1577            
    1578            $C$DW$53        .dwtag  DW_TAG_TI_assign_register
    1579                    .dwattr $C$DW$53, DW_AT_name("r12")
    1580                    .dwattr $C$DW$53, DW_AT_location[DW_OP_reg12]
    1581            
    1582            $C$DW$54        .dwtag  DW_TAG_TI_assign_register
    1583                    .dwattr $C$DW$54, DW_AT_name("r13")
    1584                    .dwattr $C$DW$54, DW_AT_location[DW_OP_reg13]
    1585            
    1586            $C$DW$55        .dwtag  DW_TAG_TI_assign_register
    1587                    .dwattr $C$DW$55, DW_AT_name("r14")
    1588                    .dwattr $C$DW$55, DW_AT_location[DW_OP_reg14]
    1589            
    1590            $C$DW$56        .dwtag  DW_TAG_TI_assign_register
    1591                    .dwattr $C$DW$56, DW_AT_name("r15")
    1592                    .dwattr $C$DW$56, DW_AT_location[DW_OP_reg15]
    1593            
    1594            $C$DW$57        .dwtag  DW_TAG_TI_assign_register
    1595                    .dwattr $C$DW$57, DW_AT_name("CIE_RETA")
    1596                    .dwattr $C$DW$57, DW_AT_location[DW_OP_reg16]
    1597            
    1598                    .dwendtag $C$DW$CU
    1599            

No Assembly Errors, No Assembly Warnings
