MSP430 Assembler PC v21.6.0 Thu Jan 27 17:18:09 2022

Copyright (c) 2003-2018 Texas Instruments Incorporated
C:\Users\d_oti\AppData\Local\Temp\{7C157F18-368C-4A2C-B4B8-F2D54C4F90C9} PAGE    1

       1            ;******************************************************************************
       2            ;* MSP430 G3 C/C++ Codegen                                              PC v21.6.0.LTS *
       3            ;* Date/Time created: Thu Jan 27 17:18:08 2022                                *
       4            ;******************************************************************************
       5                    .compiler_opts --abi=eabi --diag_wrap=off --hll_source=on --mem_model:code=small --mem_model:d
       6            
       7            $C$DW$CU        .dwtag  DW_TAG_compile_unit
       8                    .dwattr $C$DW$CU, DW_AT_name("../Dot_Product.c")
       9                    .dwattr $C$DW$CU, DW_AT_producer("TI MSP430 G3 C/C++ Codegen PC v21.6.0.LTS Copyright (c) 2003
      10                    .dwattr $C$DW$CU, DW_AT_TI_version(0x01)
      11                    .dwattr $C$DW$CU, DW_AT_comp_dir("C:\Users\d_oti\Desktop\CPE325\Otieno_Lab02_SP22_DotProduct\D
      12            $C$DW$1 .dwtag  DW_TAG_variable
      13                    .dwattr $C$DW$1, DW_AT_name("WDTCTL")
      14                    .dwattr $C$DW$1, DW_AT_TI_symbol_name("WDTCTL")
      15                    .dwattr $C$DW$1, DW_AT_type(*$C$DW$T$69)
      16                    .dwattr $C$DW$1, DW_AT_declaration
      17                    .dwattr $C$DW$1, DW_AT_external
      18                    .dwattr $C$DW$1, DW_AT_decl_file("C:\ti\ccs1110\ccs\ccs_base\msp430\include\msp430f5529.h")
      19                    .dwattr $C$DW$1, DW_AT_decl_line(0x1232)
      20                    .dwattr $C$DW$1, DW_AT_decl_column(0x01)
      21            
      22 000000               .sect   ".const:$P$T0$1"
      23                    .align  2
      24                    .elfsym $P$T0$1,SYM_SIZE(8)
      25 000000       $P$T0$1:
      26 000000 FFFF          .bits           0xffff,16
      27                                    ; $P$T0$1[0] @ 0
      28 000002 0002          .bits           0x2,16
      29                                    ; $P$T0$1[1] @ 16
      30 000004 0005          .bits           0x5,16
      31                                    ; $P$T0$1[2] @ 32
      32 000006 0003          .bits           0x3,16
      33                                    ; $P$T0$1[3] @ 48
      34            
      35            $C$DW$2 .dwtag  DW_TAG_variable
      36                    .dwattr $C$DW$2, DW_AT_name("$P$T0$1")
      37                    .dwattr $C$DW$2, DW_AT_TI_symbol_name("$P$T0$1")
      38                    .dwattr $C$DW$2, DW_AT_type(*$C$DW$T$51)
      39                    .dwattr $C$DW$2, DW_AT_location[DW_OP_addr $P$T0$1]
      40                    .dwattr $C$DW$2, DW_AT_decl_file("../Dot_Product.c")
      41                    .dwattr $C$DW$2, DW_AT_decl_line(0x17)
      42                    .dwattr $C$DW$2, DW_AT_decl_column(0x06)
      43            
      44 000000               .sect   ".const:$P$T1$2"
      45                    .align  2
      46                    .elfsym $P$T1$2,SYM_SIZE(8)
      47 000000       $P$T1$2:
      48 000000 0014          .bits           0x14,16
      49                                    ; $P$T1$2[0] @ 0
      50 000002 FFF8          .bits           0xfff8,16
      51                                    ; $P$T1$2[1] @ 16
      52 000004 0004          .bits           0x4,16
      53                                    ; $P$T1$2[2] @ 32
      54 000006 0001          .bits           0x1,16
      55                                    ; $P$T1$2[3] @ 48
MSP430 Assembler PC v21.6.0 Thu Jan 27 17:18:09 2022

Copyright (c) 2003-2018 Texas Instruments Incorporated
C:\Users\d_oti\AppData\Local\Temp\{7C157F18-368C-4A2C-B4B8-F2D54C4F90C9} PAGE    2

      56            
      57            $C$DW$3 .dwtag  DW_TAG_variable
      58                    .dwattr $C$DW$3, DW_AT_name("$P$T1$2")
      59                    .dwattr $C$DW$3, DW_AT_TI_symbol_name("$P$T1$2")
      60                    .dwattr $C$DW$3, DW_AT_type(*$C$DW$T$51)
      61                    .dwattr $C$DW$3, DW_AT_location[DW_OP_addr $P$T1$2]
      62                    .dwattr $C$DW$3, DW_AT_decl_file("../Dot_Product.c")
      63                    .dwattr $C$DW$3, DW_AT_decl_line(0x18)
      64                    .dwattr $C$DW$3, DW_AT_decl_column(0x06)
      65            
      66            
      67            $C$DW$4 .dwtag  DW_TAG_subprogram
      68                    .dwattr $C$DW$4, DW_AT_name("printf")
      69                    .dwattr $C$DW$4, DW_AT_TI_symbol_name("printf")
      70                    .dwattr $C$DW$4, DW_AT_type(*$C$DW$T$10)
      71                    .dwattr $C$DW$4, DW_AT_declaration
      72                    .dwattr $C$DW$4, DW_AT_external
      73                    .dwattr $C$DW$4, DW_AT_decl_file("C:/ti/ccs1110/ccs/tools/compiler/ti-cgt-msp430_21.6.0.LTS/in
      74                    .dwattr $C$DW$4, DW_AT_decl_line(0x100)
      75                    .dwattr $C$DW$4, DW_AT_decl_column(0x19)
      76            $C$DW$5 .dwtag  DW_TAG_formal_parameter
      77                    .dwattr $C$DW$5, DW_AT_type(*$C$DW$T$44)
      78            
      79            $C$DW$6 .dwtag  DW_TAG_unspecified_parameters
      80            
      81                    .dwendtag $C$DW$4
      82            
      83            ;       C:\ti\ccs1110\ccs\tools\compiler\ti-cgt-msp430_21.6.0.LTS\bin\acpia430.exe -@C:\\Users\\d_oti\
      84 000000               .sect   ".text:__isfinite"
      85                    .clink
      86                    .global __isfinite
      87            
      88            $C$DW$7 .dwtag  DW_TAG_subprogram
      89                    .dwattr $C$DW$7, DW_AT_name("__isfinite")
      90                    .dwattr $C$DW$7, DW_AT_low_pc(__isfinite)
      91                    .dwattr $C$DW$7, DW_AT_high_pc(0x00)
      92                    .dwattr $C$DW$7, DW_AT_TI_symbol_name("__isfinite")
      93                    .dwattr $C$DW$7, DW_AT_external
      94                    .dwattr $C$DW$7, DW_AT_type(*$C$DW$T$10)
      95                    .dwattr $C$DW$7, DW_AT_TI_begin_file("C:/ti/ccs1110/ccs/tools/compiler/ti-cgt-msp430_21.6.0.LT
      96                    .dwattr $C$DW$7, DW_AT_TI_begin_line(0x14e)
      97                    .dwattr $C$DW$7, DW_AT_TI_begin_column(0x25)
      98                    .dwattr $C$DW$7, DW_AT_decl_file("C:/ti/ccs1110/ccs/tools/compiler/ti-cgt-msp430_21.6.0.LTS/in
      99                    .dwattr $C$DW$7, DW_AT_decl_line(0x14e)
     100                    .dwattr $C$DW$7, DW_AT_decl_column(0x25)
     101                    .dwattr $C$DW$7, DW_AT_TI_max_frame_size(0x0a)
     102                    .dwpsn  file "C:/ti/ccs1110/ccs/tools/compiler/ti-cgt-msp430_21.6.0.LTS/include/_defs.h",line 
     103            
     104                    .dwfde $C$DW$CIE, __isfinite
     105            $C$DW$8 .dwtag  DW_TAG_formal_parameter
     106                    .dwattr $C$DW$8, DW_AT_name("d")
     107                    .dwattr $C$DW$8, DW_AT_TI_symbol_name("d")
     108                    .dwattr $C$DW$8, DW_AT_type(*$C$DW$T$17)
     109                    .dwattr $C$DW$8, DW_AT_location[DW_OP_reg12]
     110            
MSP430 Assembler PC v21.6.0 Thu Jan 27 17:18:09 2022

Copyright (c) 2003-2018 Texas Instruments Incorporated
C:\Users\d_oti\AppData\Local\Temp\{7C157F18-368C-4A2C-B4B8-F2D54C4F90C9} PAGE    3

     111            
     112            ;*****************************************************************************
     113            ;* FUNCTION NAME: __isfinite                                                 *
     114            ;*                                                                           *
     115            ;*   Regs Modified     : SP,SR,r12,r14,r15                                   *
     116            ;*   Regs Used         : SP,SR,r12,r13,r14,r15                               *
     117            ;*   Local Frame Size  : 0 Args + 8 Auto + 0 Save = 8 byte                   *
     118            ;*****************************************************************************
     119 000000       __isfinite:
     120            ;* --------------------------------------------------------------------------*
     121                    .dwcfi  cfa_offset, 2
     122                    .dwcfi  save_reg_to_mem, 16, -2
     123 000000 8231          SUB.W     #8,SP                 ; [] 
     124                    .dwcfi  cfa_offset, 10
     125            $C$DW$9 .dwtag  DW_TAG_variable
     126                    .dwattr $C$DW$9, DW_AT_name("d")
     127                    .dwattr $C$DW$9, DW_AT_TI_symbol_name("d")
     128                    .dwattr $C$DW$9, DW_AT_type(*$C$DW$T$17)
     129                    .dwattr $C$DW$9, DW_AT_location[DW_OP_breg1 0]
     130            
     131 000002 4C81          MOV.W     r12,0(SP)             ; [] |335| 
         000004 0000 
     132 000006 4D81          MOV.W     r13,2(SP)             ; [] |335| 
         000008 0002 
     133 00000a 4E81          MOV.W     r14,4(SP)             ; [] |335| 
         00000c 0004 
     134 00000e 4F81          MOV.W     r15,6(SP)             ; [] |335| 
         000010 0006 
     135                    .dwpsn  file "C:/ti/ccs1110/ccs/tools/compiler/ti-cgt-msp430_21.6.0.LTS/include/_defs.h",line 
     136 000012 430C          MOV.W     #0,r12                ; [] |335| 
     137 000014 430E          MOV.W     #0,r14                ; [] |335| 
     138 000016 F03F          AND.W     #32752,r15            ; [] |335| 
         000018 7FF0 
     139 00001a 903F          CMP.W     #32752,r15            ; [] |335| 
         00001c 7FF0 
     140 00001e 2001          JNE       $C$L1                 ; [] |335| 
     141                                                      ; [] |335| 
     142            ;* --------------------------------------------------------------------------*
     143 000020 431E          MOV.W     #1,r14                ; [] |335| 
     144            ;* --------------------------------------------------------------------------*
     145 000022       $C$L1:    
     146 000022 930E          TST.W     r14                   ; [] |335| 
     147 000024 2001          JNE       $C$L2                 ; [] |335| 
     148                                                      ; [] |335| 
     149            ;* --------------------------------------------------------------------------*
     150 000026 431C          MOV.W     #1,r12                ; [] |335| 
     151            ;* --------------------------------------------------------------------------*
     152 000028       $C$L2:    
     153                    .dwpsn  file "C:/ti/ccs1110/ccs/tools/compiler/ti-cgt-msp430_21.6.0.LTS/include/_defs.h",line 
     154 000028 5231          ADD.W     #8,SP                 ; [] 
     155                    .dwcfi  cfa_offset, 2
     156            $C$DW$10        .dwtag  DW_TAG_TI_branch
     157                    .dwattr $C$DW$10, DW_AT_low_pc(0x00)
     158                    .dwattr $C$DW$10, DW_AT_TI_return
     159            
MSP430 Assembler PC v21.6.0 Thu Jan 27 17:18:09 2022

Copyright (c) 2003-2018 Texas Instruments Incorporated
C:\Users\d_oti\AppData\Local\Temp\{7C157F18-368C-4A2C-B4B8-F2D54C4F90C9} PAGE    4

     160 00002a 4130          RET       ; [] 
     161                    ; [] 
     162                    .dwattr $C$DW$7, DW_AT_TI_end_file("C:/ti/ccs1110/ccs/tools/compiler/ti-cgt-msp430_21.6.0.LTS/
     163                    .dwattr $C$DW$7, DW_AT_TI_end_line(0x14f)
     164                    .dwattr $C$DW$7, DW_AT_TI_end_column(0x2e)
     165                    .dwendentry
     166                    .dwendtag $C$DW$7
     167            
     168 000000               .sect   ".text:__isfinitef"
     169                    .clink
     170                    .global __isfinitef
     171            
     172            $C$DW$11        .dwtag  DW_TAG_subprogram
     173                    .dwattr $C$DW$11, DW_AT_name("__isfinitef")
     174                    .dwattr $C$DW$11, DW_AT_low_pc(__isfinitef)
     175                    .dwattr $C$DW$11, DW_AT_high_pc(0x00)
     176                    .dwattr $C$DW$11, DW_AT_TI_symbol_name("__isfinitef")
     177                    .dwattr $C$DW$11, DW_AT_external
     178                    .dwattr $C$DW$11, DW_AT_type(*$C$DW$T$10)
     179                    .dwattr $C$DW$11, DW_AT_TI_begin_file("C:/ti/ccs1110/ccs/tools/compiler/ti-cgt-msp430_21.6.0.L
     180                    .dwattr $C$DW$11, DW_AT_TI_begin_line(0x150)
     181                    .dwattr $C$DW$11, DW_AT_TI_begin_column(0x25)
     182                    .dwattr $C$DW$11, DW_AT_decl_file("C:/ti/ccs1110/ccs/tools/compiler/ti-cgt-msp430_21.6.0.LTS/i
     183                    .dwattr $C$DW$11, DW_AT_decl_line(0x150)
     184                    .dwattr $C$DW$11, DW_AT_decl_column(0x25)
     185                    .dwattr $C$DW$11, DW_AT_TI_max_frame_size(0x06)
     186                    .dwpsn  file "C:/ti/ccs1110/ccs/tools/compiler/ti-cgt-msp430_21.6.0.LTS/include/_defs.h",line 
     187            
     188                    .dwfde $C$DW$CIE, __isfinitef
     189            $C$DW$12        .dwtag  DW_TAG_formal_parameter
     190                    .dwattr $C$DW$12, DW_AT_name("f")
     191                    .dwattr $C$DW$12, DW_AT_TI_symbol_name("f")
     192                    .dwattr $C$DW$12, DW_AT_type(*$C$DW$T$16)
     193                    .dwattr $C$DW$12, DW_AT_location[DW_OP_reg12]
     194            
     195            
     196            ;*****************************************************************************
     197            ;* FUNCTION NAME: __isfinitef                                                *
     198            ;*                                                                           *
     199            ;*   Regs Modified     : SP,SR,r12,r13,r15                                   *
     200            ;*   Regs Used         : SP,SR,r12,r13,r15                                   *
     201            ;*   Local Frame Size  : 0 Args + 4 Auto + 0 Save = 4 byte                   *
     202            ;*****************************************************************************
     203 000000       __isfinitef:
     204            ;* --------------------------------------------------------------------------*
     205                    .dwcfi  cfa_offset, 2
     206                    .dwcfi  save_reg_to_mem, 16, -2
     207 000000 8221          SUB.W     #4,SP                 ; [] 
     208                    .dwcfi  cfa_offset, 6
     209            $C$DW$13        .dwtag  DW_TAG_variable
     210                    .dwattr $C$DW$13, DW_AT_name("f")
     211                    .dwattr $C$DW$13, DW_AT_TI_symbol_name("f")
     212                    .dwattr $C$DW$13, DW_AT_type(*$C$DW$T$16)
     213                    .dwattr $C$DW$13, DW_AT_location[DW_OP_breg1 0]
     214            
MSP430 Assembler PC v21.6.0 Thu Jan 27 17:18:09 2022

Copyright (c) 2003-2018 Texas Instruments Incorporated
C:\Users\d_oti\AppData\Local\Temp\{7C157F18-368C-4A2C-B4B8-F2D54C4F90C9} PAGE    5

     215 000002 4C81          MOV.W     r12,0(SP)             ; [] |337| 
         000004 0000 
     216 000006 4D81          MOV.W     r13,2(SP)             ; [] |337| 
         000008 0002 
     217                    .dwpsn  file "C:/ti/ccs1110/ccs/tools/compiler/ti-cgt-msp430_21.6.0.LTS/include/_defs.h",line 
     218 00000a 430C          MOV.W     #0,r12                ; [] |337| 
     219 00000c 430F          MOV.W     #0,r15                ; [] |337| 
     220 00000e F03D          AND.W     #32640,r13            ; [] |337| 
         000010 7F80 
     221 000012 903D          CMP.W     #32640,r13            ; [] |337| 
         000014 7F80 
     222 000016 2001          JNE       $C$L3                 ; [] |337| 
     223                                                      ; [] |337| 
     224            ;* --------------------------------------------------------------------------*
     225 000018 431F          MOV.W     #1,r15                ; [] |337| 
     226            ;* --------------------------------------------------------------------------*
     227 00001a       $C$L3:    
     228 00001a 930F          TST.W     r15                   ; [] |337| 
     229 00001c 2001          JNE       $C$L4                 ; [] |337| 
     230                                                      ; [] |337| 
     231            ;* --------------------------------------------------------------------------*
     232 00001e 431C          MOV.W     #1,r12                ; [] |337| 
     233            ;* --------------------------------------------------------------------------*
     234 000020       $C$L4:    
     235                    .dwpsn  file "C:/ti/ccs1110/ccs/tools/compiler/ti-cgt-msp430_21.6.0.LTS/include/_defs.h",line 
     236 000020 5221          ADD.W     #4,SP                 ; [] 
     237                    .dwcfi  cfa_offset, 2
     238            $C$DW$14        .dwtag  DW_TAG_TI_branch
     239                    .dwattr $C$DW$14, DW_AT_low_pc(0x00)
     240                    .dwattr $C$DW$14, DW_AT_TI_return
     241            
     242 000022 4130          RET       ; [] 
     243                    ; [] 
     244                    .dwattr $C$DW$11, DW_AT_TI_end_file("C:/ti/ccs1110/ccs/tools/compiler/ti-cgt-msp430_21.6.0.LTS
     245                    .dwattr $C$DW$11, DW_AT_TI_end_line(0x151)
     246                    .dwattr $C$DW$11, DW_AT_TI_end_column(0x2d)
     247                    .dwendentry
     248                    .dwendtag $C$DW$11
     249            
     250 000000               .sect   ".text:__isfinitel"
     251                    .clink
     252                    .global __isfinitel
     253            
     254            $C$DW$15        .dwtag  DW_TAG_subprogram
     255                    .dwattr $C$DW$15, DW_AT_name("__isfinitel")
     256                    .dwattr $C$DW$15, DW_AT_low_pc(__isfinitel)
     257                    .dwattr $C$DW$15, DW_AT_high_pc(0x00)
     258                    .dwattr $C$DW$15, DW_AT_TI_symbol_name("__isfinitel")
     259                    .dwattr $C$DW$15, DW_AT_external
     260                    .dwattr $C$DW$15, DW_AT_type(*$C$DW$T$10)
     261                    .dwattr $C$DW$15, DW_AT_TI_begin_file("C:/ti/ccs1110/ccs/tools/compiler/ti-cgt-msp430_21.6.0.L
     262                    .dwattr $C$DW$15, DW_AT_TI_begin_line(0x152)
     263                    .dwattr $C$DW$15, DW_AT_TI_begin_column(0x25)
     264                    .dwattr $C$DW$15, DW_AT_decl_file("C:/ti/ccs1110/ccs/tools/compiler/ti-cgt-msp430_21.6.0.LTS/i
     265                    .dwattr $C$DW$15, DW_AT_decl_line(0x152)
MSP430 Assembler PC v21.6.0 Thu Jan 27 17:18:09 2022

Copyright (c) 2003-2018 Texas Instruments Incorporated
C:\Users\d_oti\AppData\Local\Temp\{7C157F18-368C-4A2C-B4B8-F2D54C4F90C9} PAGE    6

     266                    .dwattr $C$DW$15, DW_AT_decl_column(0x25)
     267                    .dwattr $C$DW$15, DW_AT_TI_max_frame_size(0x0a)
     268                    .dwpsn  file "C:/ti/ccs1110/ccs/tools/compiler/ti-cgt-msp430_21.6.0.LTS/include/_defs.h",line 
     269            
     270                    .dwfde $C$DW$CIE, __isfinitel
     271            $C$DW$16        .dwtag  DW_TAG_formal_parameter
     272                    .dwattr $C$DW$16, DW_AT_name("e")
     273                    .dwattr $C$DW$16, DW_AT_TI_symbol_name("e")
     274                    .dwattr $C$DW$16, DW_AT_type(*$C$DW$T$18)
     275                    .dwattr $C$DW$16, DW_AT_location[DW_OP_reg12]
     276            
     277            
     278            ;*****************************************************************************
     279            ;* FUNCTION NAME: __isfinitel                                                *
     280            ;*                                                                           *
     281            ;*   Regs Modified     : SP,SR,r12,r14,r15                                   *
     282            ;*   Regs Used         : SP,SR,r12,r13,r14,r15                               *
     283            ;*   Local Frame Size  : 0 Args + 8 Auto + 0 Save = 8 byte                   *
     284            ;*****************************************************************************
     285 000000       __isfinitel:
     286            ;* --------------------------------------------------------------------------*
     287                    .dwcfi  cfa_offset, 2
     288                    .dwcfi  save_reg_to_mem, 16, -2
     289 000000 8231          SUB.W     #8,SP                 ; [] 
     290                    .dwcfi  cfa_offset, 10
     291            $C$DW$17        .dwtag  DW_TAG_variable
     292                    .dwattr $C$DW$17, DW_AT_name("e")
     293                    .dwattr $C$DW$17, DW_AT_TI_symbol_name("e")
     294                    .dwattr $C$DW$17, DW_AT_type(*$C$DW$T$18)
     295                    .dwattr $C$DW$17, DW_AT_location[DW_OP_breg1 0]
     296            
     297 000002 4C81          MOV.W     r12,0(SP)             ; [] |339| 
         000004 0000 
     298 000006 4D81          MOV.W     r13,2(SP)             ; [] |339| 
         000008 0002 
     299 00000a 4E81          MOV.W     r14,4(SP)             ; [] |339| 
         00000c 0004 
     300 00000e 4F81          MOV.W     r15,6(SP)             ; [] |339| 
         000010 0006 
     301                    .dwpsn  file "C:/ti/ccs1110/ccs/tools/compiler/ti-cgt-msp430_21.6.0.LTS/include/_defs.h",line 
     302 000012 430C          MOV.W     #0,r12                ; [] |339| 
     303 000014 430E          MOV.W     #0,r14                ; [] |339| 
     304 000016 F03F          AND.W     #32752,r15            ; [] |339| 
         000018 7FF0 
     305 00001a 903F          CMP.W     #32752,r15            ; [] |339| 
         00001c 7FF0 
     306 00001e 2001          JNE       $C$L5                 ; [] |339| 
     307                                                      ; [] |339| 
     308            ;* --------------------------------------------------------------------------*
     309 000020 431E          MOV.W     #1,r14                ; [] |339| 
     310            ;* --------------------------------------------------------------------------*
     311 000022       $C$L5:    
     312 000022 930E          TST.W     r14                   ; [] |339| 
     313 000024 2001          JNE       $C$L6                 ; [] |339| 
     314                                                      ; [] |339| 
MSP430 Assembler PC v21.6.0 Thu Jan 27 17:18:09 2022

Copyright (c) 2003-2018 Texas Instruments Incorporated
C:\Users\d_oti\AppData\Local\Temp\{7C157F18-368C-4A2C-B4B8-F2D54C4F90C9} PAGE    7

     315            ;* --------------------------------------------------------------------------*
     316 000026 431C          MOV.W     #1,r12                ; [] |339| 
     317            ;* --------------------------------------------------------------------------*
     318 000028       $C$L6:    
     319                    .dwpsn  file "C:/ti/ccs1110/ccs/tools/compiler/ti-cgt-msp430_21.6.0.LTS/include/_defs.h",line 
     320 000028 5231          ADD.W     #8,SP                 ; [] 
     321                    .dwcfi  cfa_offset, 2
     322            $C$DW$18        .dwtag  DW_TAG_TI_branch
     323                    .dwattr $C$DW$18, DW_AT_low_pc(0x00)
     324                    .dwattr $C$DW$18, DW_AT_TI_return
     325            
     326 00002a 4130          RET       ; [] 
     327                    ; [] 
     328                    .dwattr $C$DW$15, DW_AT_TI_end_file("C:/ti/ccs1110/ccs/tools/compiler/ti-cgt-msp430_21.6.0.LTS
     329                    .dwattr $C$DW$15, DW_AT_TI_end_line(0x153)
     330                    .dwattr $C$DW$15, DW_AT_TI_end_column(0x2f)
     331                    .dwendentry
     332                    .dwendtag $C$DW$15
     333            
     334 000000               .sect   ".text:__isnan"
     335                    .clink
     336                    .global __isnan
     337            
     338            $C$DW$19        .dwtag  DW_TAG_subprogram
     339                    .dwattr $C$DW$19, DW_AT_name("__isnan")
     340                    .dwattr $C$DW$19, DW_AT_low_pc(__isnan)
     341                    .dwattr $C$DW$19, DW_AT_high_pc(0x00)
     342                    .dwattr $C$DW$19, DW_AT_TI_symbol_name("__isnan")
     343                    .dwattr $C$DW$19, DW_AT_external
     344                    .dwattr $C$DW$19, DW_AT_type(*$C$DW$T$10)
     345                    .dwattr $C$DW$19, DW_AT_TI_begin_file("C:/ti/ccs1110/ccs/tools/compiler/ti-cgt-msp430_21.6.0.L
     346                    .dwattr $C$DW$19, DW_AT_TI_begin_line(0x155)
     347                    .dwattr $C$DW$19, DW_AT_TI_begin_column(0x25)
     348                    .dwattr $C$DW$19, DW_AT_decl_file("C:/ti/ccs1110/ccs/tools/compiler/ti-cgt-msp430_21.6.0.LTS/i
     349                    .dwattr $C$DW$19, DW_AT_decl_line(0x155)
     350                    .dwattr $C$DW$19, DW_AT_decl_column(0x25)
     351                    .dwattr $C$DW$19, DW_AT_TI_max_frame_size(0x0c)
     352                    .dwpsn  file "C:/ti/ccs1110/ccs/tools/compiler/ti-cgt-msp430_21.6.0.LTS/include/_defs.h",line 
     353            
     354                    .dwfde $C$DW$CIE, __isnan
     355            $C$DW$20        .dwtag  DW_TAG_formal_parameter
     356                    .dwattr $C$DW$20, DW_AT_name("d")
     357                    .dwattr $C$DW$20, DW_AT_TI_symbol_name("d")
     358                    .dwattr $C$DW$20, DW_AT_type(*$C$DW$T$17)
     359                    .dwattr $C$DW$20, DW_AT_location[DW_OP_reg12]
     360            
     361            
     362            ;*****************************************************************************
     363            ;* FUNCTION NAME: __isnan                                                    *
     364            ;*                                                                           *
     365            ;*   Regs Modified     : SP,SR,r10,r11,r12,r13,r14,r15                       *
     366            ;*   Regs Used         : SP,SR,r10,r11,r12,r13,r14,r15                       *
     367            ;*   Local Frame Size  : 0 Args + 8 Auto + 2 Save = 10 byte                  *
     368            ;*****************************************************************************
     369 000000       __isnan:
MSP430 Assembler PC v21.6.0 Thu Jan 27 17:18:09 2022

Copyright (c) 2003-2018 Texas Instruments Incorporated
C:\Users\d_oti\AppData\Local\Temp\{7C157F18-368C-4A2C-B4B8-F2D54C4F90C9} PAGE    8

     370            ;* --------------------------------------------------------------------------*
     371                    .dwcfi  cfa_offset, 2
     372                    .dwcfi  save_reg_to_mem, 16, -2
     373 000000 120A          PUSH.W    r10                   ; [] 
     374                    .dwcfi  cfa_offset, 4
     375                    .dwcfi  save_reg_to_mem, 10, -4
     376 000002 8231          SUB.W     #8,SP                 ; [] 
     377                    .dwcfi  cfa_offset, 12
     378            $C$DW$21        .dwtag  DW_TAG_variable
     379                    .dwattr $C$DW$21, DW_AT_name("d")
     380                    .dwattr $C$DW$21, DW_AT_TI_symbol_name("d")
     381                    .dwattr $C$DW$21, DW_AT_type(*$C$DW$T$17)
     382                    .dwattr $C$DW$21, DW_AT_location[DW_OP_breg1 0]
     383            
     384 000004 4C81          MOV.W     r12,0(SP)             ; [] |342| 
         000006 0000 
     385 000008 4D81          MOV.W     r13,2(SP)             ; [] |342| 
         00000a 0002 
     386 00000c 4E81          MOV.W     r14,4(SP)             ; [] |342| 
         00000e 0004 
     387 000010 4F81          MOV.W     r15,6(SP)             ; [] |342| 
         000012 0006 
     388                    .dwpsn  file "C:/ti/ccs1110/ccs/tools/compiler/ti-cgt-msp430_21.6.0.LTS/include/_defs.h",line 
     389 000014 430C          MOV.W     #0,r12                ; [] |342| 
     390 000016 412B          MOV.W     0(SP),r11             ; [] |342| 
     391 000018 411D          MOV.W     2(SP),r13             ; [] |342| 
         00001a 0002 
     392 00001c 411E          MOV.W     4(SP),r14             ; [] |342| 
         00001e 0004 
     393 000020 4F0A          MOV.W     r15,r10               ; [] |342| 
     394 000022 F03A          AND.W     #32752,r10            ; [] |342| 
         000024 7FF0 
     395 000026 903A          CMP.W     #32752,r10            ; [] |342| 
         000028 7FF0 
     396 00002a 2012          JNE       $C$L8                 ; [] |342| 
     397                                                      ; [] |342| 
     398            ;* --------------------------------------------------------------------------*
     399 00002c 430A          MOV.W     #0,r10                ; [] |342| 
     400 00002e F33B          AND.W     #65535,r11            ; [] |342| 
     401 000030 F33D          AND.W     #65535,r13            ; [] |342| 
     402 000032 F33E          AND.W     #65535,r14            ; [] |342| 
     403 000034 F03F          AND.W     #15,r15               ; [] |342| 
         000036 000F 
     404 000038 930F          TST.W     r15                   ; [] |342| 
     405 00003a 2007          JNE       $C$L7                 ; [] |342| 
     406                                                      ; [] |342| 
     407            ;* --------------------------------------------------------------------------*
     408 00003c 930E          TST.W     r14                   ; [] |342| 
     409 00003e 2005          JNE       $C$L7                 ; [] |342| 
     410                                                      ; [] |342| 
     411            ;* --------------------------------------------------------------------------*
     412 000040 930D          TST.W     r13                   ; [] |342| 
     413 000042 2003          JNE       $C$L7                 ; [] |342| 
     414                                                      ; [] |342| 
     415            ;* --------------------------------------------------------------------------*
MSP430 Assembler PC v21.6.0 Thu Jan 27 17:18:09 2022

Copyright (c) 2003-2018 Texas Instruments Incorporated
C:\Users\d_oti\AppData\Local\Temp\{7C157F18-368C-4A2C-B4B8-F2D54C4F90C9} PAGE    9

     416 000044 930B          TST.W     r11                   ; [] |342| 
     417 000046 2001          JNE       $C$L7                 ; [] |342| 
     418                                                      ; [] |342| 
     419            ;* --------------------------------------------------------------------------*
     420 000048 431A          MOV.W     #1,r10                ; [] |342| 
     421            ;* --------------------------------------------------------------------------*
     422 00004a       $C$L7:    
     423 00004a 930A          TST.W     r10                   ; [] |342| 
     424 00004c 2001          JNE       $C$L8                 ; [] |342| 
     425                                                      ; [] |342| 
     426            ;* --------------------------------------------------------------------------*
     427 00004e 431C          MOV.W     #1,r12                ; [] |342| 
     428            ;* --------------------------------------------------------------------------*
     429 000050       $C$L8:    
     430                    .dwpsn  file "C:/ti/ccs1110/ccs/tools/compiler/ti-cgt-msp430_21.6.0.LTS/include/_defs.h",line 
     431 000050 5231          ADD.W     #8,SP                 ; [] 
     432                    .dwcfi  cfa_offset, 4
     433 000052 413A          POP       r10                   ; [] 
     434                    .dwcfi  restore_reg, 10
     435                    .dwcfi  cfa_offset, 2
     436            $C$DW$22        .dwtag  DW_TAG_TI_branch
     437                    .dwattr $C$DW$22, DW_AT_low_pc(0x00)
     438                    .dwattr $C$DW$22, DW_AT_TI_return
     439            
     440 000054 4130          RET       ; [] 
     441                    ; [] 
     442                    .dwattr $C$DW$19, DW_AT_TI_end_file("C:/ti/ccs1110/ccs/tools/compiler/ti-cgt-msp430_21.6.0.LTS
     443                    .dwattr $C$DW$19, DW_AT_TI_end_line(0x157)
     444                    .dwattr $C$DW$19, DW_AT_TI_end_column(0x2f)
     445                    .dwendentry
     446                    .dwendtag $C$DW$19
     447            
     448 000000               .sect   ".text:__isnanf"
     449                    .clink
     450                    .global __isnanf
     451            
     452            $C$DW$23        .dwtag  DW_TAG_subprogram
     453                    .dwattr $C$DW$23, DW_AT_name("__isnanf")
     454                    .dwattr $C$DW$23, DW_AT_low_pc(__isnanf)
     455                    .dwattr $C$DW$23, DW_AT_high_pc(0x00)
     456                    .dwattr $C$DW$23, DW_AT_TI_symbol_name("__isnanf")
     457                    .dwattr $C$DW$23, DW_AT_external
     458                    .dwattr $C$DW$23, DW_AT_type(*$C$DW$T$10)
     459                    .dwattr $C$DW$23, DW_AT_TI_begin_file("C:/ti/ccs1110/ccs/tools/compiler/ti-cgt-msp430_21.6.0.L
     460                    .dwattr $C$DW$23, DW_AT_TI_begin_line(0x158)
     461                    .dwattr $C$DW$23, DW_AT_TI_begin_column(0x25)
     462                    .dwattr $C$DW$23, DW_AT_decl_file("C:/ti/ccs1110/ccs/tools/compiler/ti-cgt-msp430_21.6.0.LTS/i
     463                    .dwattr $C$DW$23, DW_AT_decl_line(0x158)
     464                    .dwattr $C$DW$23, DW_AT_decl_column(0x25)
     465                    .dwattr $C$DW$23, DW_AT_TI_max_frame_size(0x06)
     466                    .dwpsn  file "C:/ti/ccs1110/ccs/tools/compiler/ti-cgt-msp430_21.6.0.LTS/include/_defs.h",line 
     467            
     468                    .dwfde $C$DW$CIE, __isnanf
     469            $C$DW$24        .dwtag  DW_TAG_formal_parameter
     470                    .dwattr $C$DW$24, DW_AT_name("f")
MSP430 Assembler PC v21.6.0 Thu Jan 27 17:18:09 2022

Copyright (c) 2003-2018 Texas Instruments Incorporated
C:\Users\d_oti\AppData\Local\Temp\{7C157F18-368C-4A2C-B4B8-F2D54C4F90C9} PAGE   10

     471                    .dwattr $C$DW$24, DW_AT_TI_symbol_name("f")
     472                    .dwattr $C$DW$24, DW_AT_type(*$C$DW$T$16)
     473                    .dwattr $C$DW$24, DW_AT_location[DW_OP_reg12]
     474            
     475            
     476            ;*****************************************************************************
     477            ;* FUNCTION NAME: __isnanf                                                   *
     478            ;*                                                                           *
     479            ;*   Regs Modified     : SP,SR,r12,r13,r14,r15                               *
     480            ;*   Regs Used         : SP,SR,r12,r13,r14,r15                               *
     481            ;*   Local Frame Size  : 0 Args + 4 Auto + 0 Save = 4 byte                   *
     482            ;*****************************************************************************
     483 000000       __isnanf:
     484            ;* --------------------------------------------------------------------------*
     485                    .dwcfi  cfa_offset, 2
     486                    .dwcfi  save_reg_to_mem, 16, -2
     487 000000 8221          SUB.W     #4,SP                 ; [] 
     488                    .dwcfi  cfa_offset, 6
     489            $C$DW$25        .dwtag  DW_TAG_variable
     490                    .dwattr $C$DW$25, DW_AT_name("f")
     491                    .dwattr $C$DW$25, DW_AT_TI_symbol_name("f")
     492                    .dwattr $C$DW$25, DW_AT_type(*$C$DW$T$16)
     493                    .dwattr $C$DW$25, DW_AT_location[DW_OP_breg1 0]
     494            
     495 000002 4C81          MOV.W     r12,0(SP)             ; [] |345| 
         000004 0000 
     496 000006 4D81          MOV.W     r13,2(SP)             ; [] |345| 
         000008 0002 
     497                    .dwpsn  file "C:/ti/ccs1110/ccs/tools/compiler/ti-cgt-msp430_21.6.0.LTS/include/_defs.h",line 
     498 00000a 430C          MOV.W     #0,r12                ; [] |345| 
     499 00000c 412F          MOV.W     0(SP),r15             ; [] |345| 
     500 00000e 4D0E          MOV.W     r13,r14               ; [] |345| 
     501 000010 F03E          AND.W     #32640,r14            ; [] |345| 
         000012 7F80 
     502 000014 903E          CMP.W     #32640,r14            ; [] |345| 
         000016 7F80 
     503 000018 200C          JNE       $C$L10                ; [] |345| 
     504                                                      ; [] |345| 
     505            ;* --------------------------------------------------------------------------*
     506 00001a 430E          MOV.W     #0,r14                ; [] |345| 
     507 00001c F33F          AND.W     #65535,r15            ; [] |345| 
     508 00001e F03D          AND.W     #127,r13              ; [] |345| 
         000020 007F 
     509 000022 930D          TST.W     r13                   ; [] |345| 
     510 000024 2003          JNE       $C$L9                 ; [] |345| 
     511                                                      ; [] |345| 
     512            ;* --------------------------------------------------------------------------*
     513 000026 930F          TST.W     r15                   ; [] |345| 
     514 000028 2001          JNE       $C$L9                 ; [] |345| 
     515                                                      ; [] |345| 
     516            ;* --------------------------------------------------------------------------*
     517 00002a 431E          MOV.W     #1,r14                ; [] |345| 
     518            ;* --------------------------------------------------------------------------*
     519 00002c       $C$L9:    
     520 00002c 930E          TST.W     r14                   ; [] |345| 
MSP430 Assembler PC v21.6.0 Thu Jan 27 17:18:09 2022

Copyright (c) 2003-2018 Texas Instruments Incorporated
C:\Users\d_oti\AppData\Local\Temp\{7C157F18-368C-4A2C-B4B8-F2D54C4F90C9} PAGE   11

     521 00002e 2001          JNE       $C$L10                ; [] |345| 
     522                                                      ; [] |345| 
     523            ;* --------------------------------------------------------------------------*
     524 000030 431C          MOV.W     #1,r12                ; [] |345| 
     525            ;* --------------------------------------------------------------------------*
     526 000032       $C$L10:    
     527                    .dwpsn  file "C:/ti/ccs1110/ccs/tools/compiler/ti-cgt-msp430_21.6.0.LTS/include/_defs.h",line 
     528 000032 5221          ADD.W     #4,SP                 ; [] 
     529                    .dwcfi  cfa_offset, 2
     530            $C$DW$26        .dwtag  DW_TAG_TI_branch
     531                    .dwattr $C$DW$26, DW_AT_low_pc(0x00)
     532                    .dwattr $C$DW$26, DW_AT_TI_return
     533            
     534 000034 4130          RET       ; [] 
     535                    ; [] 
     536                    .dwattr $C$DW$23, DW_AT_TI_end_file("C:/ti/ccs1110/ccs/tools/compiler/ti-cgt-msp430_21.6.0.LTS
     537                    .dwattr $C$DW$23, DW_AT_TI_end_line(0x15a)
     538                    .dwattr $C$DW$23, DW_AT_TI_end_column(0x2e)
     539                    .dwendentry
     540                    .dwendtag $C$DW$23
     541            
     542 000000               .sect   ".text:__isnanl"
     543                    .clink
     544                    .global __isnanl
     545            
     546            $C$DW$27        .dwtag  DW_TAG_subprogram
     547                    .dwattr $C$DW$27, DW_AT_name("__isnanl")
     548                    .dwattr $C$DW$27, DW_AT_low_pc(__isnanl)
     549                    .dwattr $C$DW$27, DW_AT_high_pc(0x00)
     550                    .dwattr $C$DW$27, DW_AT_TI_symbol_name("__isnanl")
     551                    .dwattr $C$DW$27, DW_AT_external
     552                    .dwattr $C$DW$27, DW_AT_type(*$C$DW$T$10)
     553                    .dwattr $C$DW$27, DW_AT_TI_begin_file("C:/ti/ccs1110/ccs/tools/compiler/ti-cgt-msp430_21.6.0.L
     554                    .dwattr $C$DW$27, DW_AT_TI_begin_line(0x15b)
     555                    .dwattr $C$DW$27, DW_AT_TI_begin_column(0x25)
     556                    .dwattr $C$DW$27, DW_AT_decl_file("C:/ti/ccs1110/ccs/tools/compiler/ti-cgt-msp430_21.6.0.LTS/i
     557                    .dwattr $C$DW$27, DW_AT_decl_line(0x15b)
     558                    .dwattr $C$DW$27, DW_AT_decl_column(0x25)
     559                    .dwattr $C$DW$27, DW_AT_TI_max_frame_size(0x0c)
     560                    .dwpsn  file "C:/ti/ccs1110/ccs/tools/compiler/ti-cgt-msp430_21.6.0.LTS/include/_defs.h",line 
     561            
     562                    .dwfde $C$DW$CIE, __isnanl
     563            $C$DW$28        .dwtag  DW_TAG_formal_parameter
     564                    .dwattr $C$DW$28, DW_AT_name("e")
     565                    .dwattr $C$DW$28, DW_AT_TI_symbol_name("e")
     566                    .dwattr $C$DW$28, DW_AT_type(*$C$DW$T$18)
     567                    .dwattr $C$DW$28, DW_AT_location[DW_OP_reg12]
     568            
     569            
     570            ;*****************************************************************************
     571            ;* FUNCTION NAME: __isnanl                                                   *
     572            ;*                                                                           *
     573            ;*   Regs Modified     : SP,SR,r10,r11,r12,r13,r14,r15                       *
     574            ;*   Regs Used         : SP,SR,r10,r11,r12,r13,r14,r15                       *
     575            ;*   Local Frame Size  : 0 Args + 8 Auto + 2 Save = 10 byte                  *
MSP430 Assembler PC v21.6.0 Thu Jan 27 17:18:09 2022

Copyright (c) 2003-2018 Texas Instruments Incorporated
C:\Users\d_oti\AppData\Local\Temp\{7C157F18-368C-4A2C-B4B8-F2D54C4F90C9} PAGE   12

     576            ;*****************************************************************************
     577 000000       __isnanl:
     578            ;* --------------------------------------------------------------------------*
     579                    .dwcfi  cfa_offset, 2
     580                    .dwcfi  save_reg_to_mem, 16, -2
     581 000000 120A          PUSH.W    r10                   ; [] 
     582                    .dwcfi  cfa_offset, 4
     583                    .dwcfi  save_reg_to_mem, 10, -4
     584 000002 8231          SUB.W     #8,SP                 ; [] 
     585                    .dwcfi  cfa_offset, 12
     586            $C$DW$29        .dwtag  DW_TAG_variable
     587                    .dwattr $C$DW$29, DW_AT_name("e")
     588                    .dwattr $C$DW$29, DW_AT_TI_symbol_name("e")
     589                    .dwattr $C$DW$29, DW_AT_type(*$C$DW$T$18)
     590                    .dwattr $C$DW$29, DW_AT_location[DW_OP_breg1 0]
     591            
     592 000004 4C81          MOV.W     r12,0(SP)             ; [] |348| 
         000006 0000 
     593 000008 4D81          MOV.W     r13,2(SP)             ; [] |348| 
         00000a 0002 
     594 00000c 4E81          MOV.W     r14,4(SP)             ; [] |348| 
         00000e 0004 
     595 000010 4F81          MOV.W     r15,6(SP)             ; [] |348| 
         000012 0006 
     596                    .dwpsn  file "C:/ti/ccs1110/ccs/tools/compiler/ti-cgt-msp430_21.6.0.LTS/include/_defs.h",line 
     597 000014 430C          MOV.W     #0,r12                ; [] |348| 
     598 000016 412B          MOV.W     0(SP),r11             ; [] |348| 
     599 000018 411D          MOV.W     2(SP),r13             ; [] |348| 
         00001a 0002 
     600 00001c 411E          MOV.W     4(SP),r14             ; [] |348| 
         00001e 0004 
     601 000020 4F0A          MOV.W     r15,r10               ; [] |348| 
     602 000022 F03A          AND.W     #32752,r10            ; [] |348| 
         000024 7FF0 
     603 000026 903A          CMP.W     #32752,r10            ; [] |348| 
         000028 7FF0 
     604 00002a 2012          JNE       $C$L12                ; [] |348| 
     605                                                      ; [] |348| 
     606            ;* --------------------------------------------------------------------------*
     607 00002c 430A          MOV.W     #0,r10                ; [] |348| 
     608 00002e F33B          AND.W     #65535,r11            ; [] |348| 
     609 000030 F33D          AND.W     #65535,r13            ; [] |348| 
     610 000032 F33E          AND.W     #65535,r14            ; [] |348| 
     611 000034 F03F          AND.W     #15,r15               ; [] |348| 
         000036 000F 
     612 000038 930F          TST.W     r15                   ; [] |348| 
     613 00003a 2007          JNE       $C$L11                ; [] |348| 
     614                                                      ; [] |348| 
     615            ;* --------------------------------------------------------------------------*
     616 00003c 930E          TST.W     r14                   ; [] |348| 
     617 00003e 2005          JNE       $C$L11                ; [] |348| 
     618                                                      ; [] |348| 
     619            ;* --------------------------------------------------------------------------*
     620 000040 930D          TST.W     r13                   ; [] |348| 
     621 000042 2003          JNE       $C$L11                ; [] |348| 
MSP430 Assembler PC v21.6.0 Thu Jan 27 17:18:09 2022

Copyright (c) 2003-2018 Texas Instruments Incorporated
C:\Users\d_oti\AppData\Local\Temp\{7C157F18-368C-4A2C-B4B8-F2D54C4F90C9} PAGE   13

     622                                                      ; [] |348| 
     623            ;* --------------------------------------------------------------------------*
     624 000044 930B          TST.W     r11                   ; [] |348| 
     625 000046 2001          JNE       $C$L11                ; [] |348| 
     626                                                      ; [] |348| 
     627            ;* --------------------------------------------------------------------------*
     628 000048 431A          MOV.W     #1,r10                ; [] |348| 
     629            ;* --------------------------------------------------------------------------*
     630 00004a       $C$L11:    
     631 00004a 930A          TST.W     r10                   ; [] |348| 
     632 00004c 2001          JNE       $C$L12                ; [] |348| 
     633                                                      ; [] |348| 
     634            ;* --------------------------------------------------------------------------*
     635 00004e 431C          MOV.W     #1,r12                ; [] |348| 
     636            ;* --------------------------------------------------------------------------*
     637 000050       $C$L12:    
     638                    .dwpsn  file "C:/ti/ccs1110/ccs/tools/compiler/ti-cgt-msp430_21.6.0.LTS/include/_defs.h",line 
     639 000050 5231          ADD.W     #8,SP                 ; [] 
     640                    .dwcfi  cfa_offset, 4
     641 000052 413A          POP       r10                   ; [] 
     642                    .dwcfi  restore_reg, 10
     643                    .dwcfi  cfa_offset, 2
     644            $C$DW$30        .dwtag  DW_TAG_TI_branch
     645                    .dwattr $C$DW$30, DW_AT_low_pc(0x00)
     646                    .dwattr $C$DW$30, DW_AT_TI_return
     647            
     648 000054 4130          RET       ; [] 
     649                    ; [] 
     650                    .dwattr $C$DW$27, DW_AT_TI_end_file("C:/ti/ccs1110/ccs/tools/compiler/ti-cgt-msp430_21.6.0.LTS
     651                    .dwattr $C$DW$27, DW_AT_TI_end_line(0x15d)
     652                    .dwattr $C$DW$27, DW_AT_TI_end_column(0x30)
     653                    .dwendentry
     654                    .dwendtag $C$DW$27
     655            
     656 000000               .sect   ".text:__isnormal"
     657                    .clink
     658                    .global __isnormal
     659            
     660            $C$DW$31        .dwtag  DW_TAG_subprogram
     661                    .dwattr $C$DW$31, DW_AT_name("__isnormal")
     662                    .dwattr $C$DW$31, DW_AT_low_pc(__isnormal)
     663                    .dwattr $C$DW$31, DW_AT_high_pc(0x00)
     664                    .dwattr $C$DW$31, DW_AT_TI_symbol_name("__isnormal")
     665                    .dwattr $C$DW$31, DW_AT_external
     666                    .dwattr $C$DW$31, DW_AT_type(*$C$DW$T$10)
     667                    .dwattr $C$DW$31, DW_AT_TI_begin_file("C:/ti/ccs1110/ccs/tools/compiler/ti-cgt-msp430_21.6.0.L
     668                    .dwattr $C$DW$31, DW_AT_TI_begin_line(0x15f)
     669                    .dwattr $C$DW$31, DW_AT_TI_begin_column(0x25)
     670                    .dwattr $C$DW$31, DW_AT_decl_file("C:/ti/ccs1110/ccs/tools/compiler/ti-cgt-msp430_21.6.0.LTS/i
     671                    .dwattr $C$DW$31, DW_AT_decl_line(0x15f)
     672                    .dwattr $C$DW$31, DW_AT_decl_column(0x25)
     673                    .dwattr $C$DW$31, DW_AT_TI_max_frame_size(0x14)
     674                    .dwpsn  file "C:/ti/ccs1110/ccs/tools/compiler/ti-cgt-msp430_21.6.0.LTS/include/_defs.h",line 
     675            
     676                    .dwfde $C$DW$CIE, __isnormal
MSP430 Assembler PC v21.6.0 Thu Jan 27 17:18:09 2022

Copyright (c) 2003-2018 Texas Instruments Incorporated
C:\Users\d_oti\AppData\Local\Temp\{7C157F18-368C-4A2C-B4B8-F2D54C4F90C9} PAGE   14

     677            $C$DW$32        .dwtag  DW_TAG_formal_parameter
     678                    .dwattr $C$DW$32, DW_AT_name("d")
     679                    .dwattr $C$DW$32, DW_AT_TI_symbol_name("d")
     680                    .dwattr $C$DW$32, DW_AT_type(*$C$DW$T$17)
     681                    .dwattr $C$DW$32, DW_AT_location[DW_OP_reg12]
     682            
     683            
     684            ;*****************************************************************************
     685            ;* FUNCTION NAME: __isnormal                                                 *
     686            ;*                                                                           *
     687            ;*   Regs Modified     : SP,SR,r6,r7,r8,r9,r10,r11,r12,r13,r14,r15           *
     688            ;*   Regs Used         : SP,SR,r6,r7,r8,r9,r10,r11,r12,r13,r14,r15           *
     689            ;*   Local Frame Size  : 0 Args + 8 Auto + 10 Save = 18 byte                 *
     690            ;*****************************************************************************
     691 000000       __isnormal:
     692            ;* --------------------------------------------------------------------------*
     693                    .dwcfi  cfa_offset, 2
     694                    .dwcfi  save_reg_to_mem, 16, -2
     695 000000 120A          PUSH.W    r10                   ; [] 
     696                    .dwcfi  cfa_offset, 4
     697                    .dwcfi  save_reg_to_mem, 10, -4
     698 000002 1209          PUSH.W    r9                    ; [] 
     699                    .dwcfi  cfa_offset, 6
     700                    .dwcfi  save_reg_to_mem, 9, -6
     701 000004 1208          PUSH.W    r8                    ; [] 
     702                    .dwcfi  cfa_offset, 8
     703                    .dwcfi  save_reg_to_mem, 8, -8
     704 000006 1207          PUSH.W    r7                    ; [] 
     705                    .dwcfi  cfa_offset, 10
     706                    .dwcfi  save_reg_to_mem, 7, -10
     707 000008 1206          PUSH.W    r6                    ; [] 
     708                    .dwcfi  cfa_offset, 12
     709                    .dwcfi  save_reg_to_mem, 6, -12
     710 00000a 8231          SUB.W     #8,SP                 ; [] 
     711                    .dwcfi  cfa_offset, 20
     712            $C$DW$33        .dwtag  DW_TAG_variable
     713                    .dwattr $C$DW$33, DW_AT_name("d")
     714                    .dwattr $C$DW$33, DW_AT_TI_symbol_name("d")
     715                    .dwattr $C$DW$33, DW_AT_type(*$C$DW$T$17)
     716                    .dwattr $C$DW$33, DW_AT_location[DW_OP_breg1 0]
     717            
     718 00000c 4C81          MOV.W     r12,0(SP)             ; [] |352| 
         00000e 0000 
     719 000010 4D81          MOV.W     r13,2(SP)             ; [] |352| 
         000012 0002 
     720 000014 4E81          MOV.W     r14,4(SP)             ; [] |352| 
         000016 0004 
     721 000018 4F81          MOV.W     r15,6(SP)             ; [] |352| 
         00001a 0006 
     722                    .dwpsn  file "C:/ti/ccs1110/ccs/tools/compiler/ti-cgt-msp430_21.6.0.LTS/include/_defs.h",line 
     723 00001c 4307          MOV.W     #0,r7                 ; [] |352| 
     724 00001e 4306          MOV.W     #0,r6                 ; [] |352| 
     725 000020 4128          MOV.W     0(SP),r8              ; [] |352| 
     726 000022 4119          MOV.W     2(SP),r9              ; [] |352| 
         000024 0002 
MSP430 Assembler PC v21.6.0 Thu Jan 27 17:18:09 2022

Copyright (c) 2003-2018 Texas Instruments Incorporated
C:\Users\d_oti\AppData\Local\Temp\{7C157F18-368C-4A2C-B4B8-F2D54C4F90C9} PAGE   15

     727 000026 411A          MOV.W     4(SP),r10             ; [] |352| 
         000028 0004 
     728 00002a 4F0B          MOV.W     r15,r11               ; [] |352| 
     729 00002c 403C          MOV.W     #52,r12               ; [] |352| 
         00002e 0034 
     730            $C$DW$34        .dwtag  DW_TAG_TI_branch
     731                    .dwattr $C$DW$34, DW_AT_low_pc(0x00)
     732                    .dwattr $C$DW$34, DW_AT_name("__mspabi_srlll")
     733                    .dwattr $C$DW$34, DW_AT_TI_call
     734            
     735 000030 12B0          CALL      #__mspabi_srlll       ; [] |352| 
         000032 0000!
     736                                                      ; [] |352| 
     737 000034 F03C          AND.W     #2047,r12             ; [] |352| 
         000036 07FF 
     738 000038 F30D          AND.W     #0,r13                ; [] |352| 
     739 00003a F30E          AND.W     #0,r14                ; [] |352| 
     740 00003c F30F          AND.W     #0,r15                ; [] |352| 
     741 00003e 930F          TST.W     r15                   ; [] |352| 
     742 000040 2007          JNE       $C$L13                ; [] |352| 
     743                                                      ; [] |352| 
     744            ;* --------------------------------------------------------------------------*
     745 000042 930E          TST.W     r14                   ; [] |352| 
     746 000044 2005          JNE       $C$L13                ; [] |352| 
     747                                                      ; [] |352| 
     748            ;* --------------------------------------------------------------------------*
     749 000046 930D          TST.W     r13                   ; [] |352| 
     750 000048 2003          JNE       $C$L13                ; [] |352| 
     751                                                      ; [] |352| 
     752            ;* --------------------------------------------------------------------------*
     753 00004a 930C          TST.W     r12                   ; [] |352| 
     754 00004c 2001          JNE       $C$L13                ; [] |352| 
     755                                                      ; [] |352| 
     756            ;* --------------------------------------------------------------------------*
     757 00004e 4316          MOV.W     #1,r6                 ; [] |352| 
     758            ;* --------------------------------------------------------------------------*
     759 000050       $C$L13:    
     760 000050 9306          TST.W     r6                    ; [] |352| 
     761 000052 200C          JNE       $C$L15                ; [] |352| 
     762                                                      ; [] |352| 
     763            ;* --------------------------------------------------------------------------*
     764 000054 430E          MOV.W     #0,r14                ; [] |352| 
     765 000056 411F          MOV.W     6(SP),r15             ; [] |352| 
         000058 0006 
     766 00005a F03F          AND.W     #32752,r15            ; [] |352| 
         00005c 7FF0 
     767 00005e 903F          CMP.W     #32752,r15            ; [] |352| 
         000060 7FF0 
     768 000062 2001          JNE       $C$L14                ; [] |352| 
     769                                                      ; [] |352| 
     770            ;* --------------------------------------------------------------------------*
     771 000064 431E          MOV.W     #1,r14                ; [] |352| 
     772            ;* --------------------------------------------------------------------------*
     773 000066       $C$L14:    
     774 000066 930E          TST.W     r14                   ; [] |352| 
MSP430 Assembler PC v21.6.0 Thu Jan 27 17:18:09 2022

Copyright (c) 2003-2018 Texas Instruments Incorporated
C:\Users\d_oti\AppData\Local\Temp\{7C157F18-368C-4A2C-B4B8-F2D54C4F90C9} PAGE   16

     775 000068 2001          JNE       $C$L15                ; [] |352| 
     776                                                      ; [] |352| 
     777            ;* --------------------------------------------------------------------------*
     778 00006a 4317          MOV.W     #1,r7                 ; [] |352| 
     779            ;* --------------------------------------------------------------------------*
     780 00006c       $C$L15:    
     781 00006c 470C          MOV.W     r7,r12                ; [] |352| 
     782                    .dwpsn  file "C:/ti/ccs1110/ccs/tools/compiler/ti-cgt-msp430_21.6.0.LTS/include/_defs.h",line 
     783 00006e 5231          ADD.W     #8,SP                 ; [] 
     784                    .dwcfi  cfa_offset, 12
     785            $C$DW$35        .dwtag  DW_TAG_TI_branch
     786                    .dwattr $C$DW$35, DW_AT_low_pc(0x00)
     787                    .dwattr $C$DW$35, DW_AT_TI_return
     788            
     789 000070 4030          BR        #__mspabi_func_epilog_5 ; [] 
         000072 0000!
     790                    ; [] 
     791                    .dwattr $C$DW$31, DW_AT_TI_end_file("C:/ti/ccs1110/ccs/tools/compiler/ti-cgt-msp430_21.6.0.LTS
     792                    .dwattr $C$DW$31, DW_AT_TI_end_line(0x161)
     793                    .dwattr $C$DW$31, DW_AT_TI_end_column(0x30)
     794                    .dwendentry
     795                    .dwendtag $C$DW$31
     796            
     797 000000               .sect   ".text:__isnormalf"
     798                    .clink
     799                    .global __isnormalf
     800            
     801            $C$DW$36        .dwtag  DW_TAG_subprogram
     802                    .dwattr $C$DW$36, DW_AT_name("__isnormalf")
     803                    .dwattr $C$DW$36, DW_AT_low_pc(__isnormalf)
     804                    .dwattr $C$DW$36, DW_AT_high_pc(0x00)
     805                    .dwattr $C$DW$36, DW_AT_TI_symbol_name("__isnormalf")
     806                    .dwattr $C$DW$36, DW_AT_external
     807                    .dwattr $C$DW$36, DW_AT_type(*$C$DW$T$10)
     808                    .dwattr $C$DW$36, DW_AT_TI_begin_file("C:/ti/ccs1110/ccs/tools/compiler/ti-cgt-msp430_21.6.0.L
     809                    .dwattr $C$DW$36, DW_AT_TI_begin_line(0x163)
     810                    .dwattr $C$DW$36, DW_AT_TI_begin_column(0x25)
     811                    .dwattr $C$DW$36, DW_AT_decl_file("C:/ti/ccs1110/ccs/tools/compiler/ti-cgt-msp430_21.6.0.LTS/i
     812                    .dwattr $C$DW$36, DW_AT_decl_line(0x163)
     813                    .dwattr $C$DW$36, DW_AT_decl_column(0x25)
     814                    .dwattr $C$DW$36, DW_AT_TI_max_frame_size(0x06)
     815                    .dwpsn  file "C:/ti/ccs1110/ccs/tools/compiler/ti-cgt-msp430_21.6.0.LTS/include/_defs.h",line 
     816            
     817                    .dwfde $C$DW$CIE, __isnormalf
     818            $C$DW$37        .dwtag  DW_TAG_formal_parameter
     819                    .dwattr $C$DW$37, DW_AT_name("f")
     820                    .dwattr $C$DW$37, DW_AT_TI_symbol_name("f")
     821                    .dwattr $C$DW$37, DW_AT_type(*$C$DW$T$16)
     822                    .dwattr $C$DW$37, DW_AT_location[DW_OP_reg12]
     823            
     824            
     825            ;*****************************************************************************
     826            ;* FUNCTION NAME: __isnormalf                                                *
     827            ;*                                                                           *
     828            ;*   Regs Modified     : SP,SR,r12,r13,r14,r15                               *
MSP430 Assembler PC v21.6.0 Thu Jan 27 17:18:09 2022

Copyright (c) 2003-2018 Texas Instruments Incorporated
C:\Users\d_oti\AppData\Local\Temp\{7C157F18-368C-4A2C-B4B8-F2D54C4F90C9} PAGE   17

     829            ;*   Regs Used         : SP,SR,r12,r13,r14,r15                               *
     830            ;*   Local Frame Size  : 0 Args + 4 Auto + 0 Save = 4 byte                   *
     831            ;*****************************************************************************
     832 000000       __isnormalf:
     833            ;* --------------------------------------------------------------------------*
     834                    .dwcfi  cfa_offset, 2
     835                    .dwcfi  save_reg_to_mem, 16, -2
     836 000000 8221          SUB.W     #4,SP                 ; [] 
     837                    .dwcfi  cfa_offset, 6
     838            $C$DW$38        .dwtag  DW_TAG_variable
     839                    .dwattr $C$DW$38, DW_AT_name("f")
     840                    .dwattr $C$DW$38, DW_AT_TI_symbol_name("f")
     841                    .dwattr $C$DW$38, DW_AT_type(*$C$DW$T$16)
     842                    .dwattr $C$DW$38, DW_AT_location[DW_OP_breg1 0]
     843            
     844 000002 4C81          MOV.W     r12,0(SP)             ; [] |356| 
         000004 0000 
     845 000006 4D81          MOV.W     r13,2(SP)             ; [] |356| 
         000008 0002 
     846                    .dwpsn  file "C:/ti/ccs1110/ccs/tools/compiler/ti-cgt-msp430_21.6.0.LTS/include/_defs.h",line 
     847 00000a 430E          MOV.W     #0,r14                ; [] |356| 
     848 00000c 430F          MOV.W     #0,r15                ; [] |356| 
     849 00000e 4D0C          MOV.W     r13,r12               ; [] 
     850            $C$DW$39        .dwtag  DW_TAG_TI_branch
     851                    .dwattr $C$DW$39, DW_AT_low_pc(0x00)
     852                    .dwattr $C$DW$39, DW_AT_name("__mspabi_srli_7")
     853                    .dwattr $C$DW$39, DW_AT_TI_call
     854            
     855 000010 12B0          CALL      #__mspabi_srli_7      ; [] |356| 
         000012 0000!
     856                                                      ; [] |356| 
     857 000014 B03C          BIT.W     #255,r12              ; [] |356| 
         000016 00FF 
     858 000018 2001          JNE       $C$L16                ; [] |356| 
     859                                                      ; [] |356| 
     860            ;* --------------------------------------------------------------------------*
     861 00001a 431F          MOV.W     #1,r15                ; [] |356| 
     862            ;* --------------------------------------------------------------------------*
     863 00001c       $C$L16:    
     864 00001c 930F          TST.W     r15                   ; [] |356| 
     865 00001e 200C          JNE       $C$L18                ; [] |356| 
     866                                                      ; [] |356| 
     867            ;* --------------------------------------------------------------------------*
     868 000020 430D          MOV.W     #0,r13                ; [] |356| 
     869 000022 411F          MOV.W     2(SP),r15             ; [] |356| 
         000024 0002 
     870 000026 F03F          AND.W     #32640,r15            ; [] |356| 
         000028 7F80 
     871 00002a 903F          CMP.W     #32640,r15            ; [] |356| 
         00002c 7F80 
     872 00002e 2001          JNE       $C$L17                ; [] |356| 
     873                                                      ; [] |356| 
     874            ;* --------------------------------------------------------------------------*
     875 000030 431D          MOV.W     #1,r13                ; [] |356| 
     876            ;* --------------------------------------------------------------------------*
MSP430 Assembler PC v21.6.0 Thu Jan 27 17:18:09 2022

Copyright (c) 2003-2018 Texas Instruments Incorporated
C:\Users\d_oti\AppData\Local\Temp\{7C157F18-368C-4A2C-B4B8-F2D54C4F90C9} PAGE   18

     877 000032       $C$L17:    
     878 000032 930D          TST.W     r13                   ; [] |356| 
     879 000034 2001          JNE       $C$L18                ; [] |356| 
     880                                                      ; [] |356| 
     881            ;* --------------------------------------------------------------------------*
     882 000036 431E          MOV.W     #1,r14                ; [] |356| 
     883            ;* --------------------------------------------------------------------------*
     884 000038       $C$L18:    
     885 000038 4E0C          MOV.W     r14,r12               ; [] |356| 
     886                    .dwpsn  file "C:/ti/ccs1110/ccs/tools/compiler/ti-cgt-msp430_21.6.0.LTS/include/_defs.h",line 
     887 00003a 5221          ADD.W     #4,SP                 ; [] 
     888                    .dwcfi  cfa_offset, 2
     889            $C$DW$40        .dwtag  DW_TAG_TI_branch
     890                    .dwattr $C$DW$40, DW_AT_low_pc(0x00)
     891                    .dwattr $C$DW$40, DW_AT_TI_return
     892            
     893 00003c 4130          RET       ; [] 
     894                    ; [] 
     895                    .dwattr $C$DW$36, DW_AT_TI_end_file("C:/ti/ccs1110/ccs/tools/compiler/ti-cgt-msp430_21.6.0.LTS
     896                    .dwattr $C$DW$36, DW_AT_TI_end_line(0x165)
     897                    .dwattr $C$DW$36, DW_AT_TI_end_column(0x2f)
     898                    .dwendentry
     899                    .dwendtag $C$DW$36
     900            
     901 000000               .sect   ".text:__isnormall"
     902                    .clink
     903                    .global __isnormall
     904            
     905            $C$DW$41        .dwtag  DW_TAG_subprogram
     906                    .dwattr $C$DW$41, DW_AT_name("__isnormall")
     907                    .dwattr $C$DW$41, DW_AT_low_pc(__isnormall)
     908                    .dwattr $C$DW$41, DW_AT_high_pc(0x00)
     909                    .dwattr $C$DW$41, DW_AT_TI_symbol_name("__isnormall")
     910                    .dwattr $C$DW$41, DW_AT_external
     911                    .dwattr $C$DW$41, DW_AT_type(*$C$DW$T$10)
     912                    .dwattr $C$DW$41, DW_AT_TI_begin_file("C:/ti/ccs1110/ccs/tools/compiler/ti-cgt-msp430_21.6.0.L
     913                    .dwattr $C$DW$41, DW_AT_TI_begin_line(0x167)
     914                    .dwattr $C$DW$41, DW_AT_TI_begin_column(0x25)
     915                    .dwattr $C$DW$41, DW_AT_decl_file("C:/ti/ccs1110/ccs/tools/compiler/ti-cgt-msp430_21.6.0.LTS/i
     916                    .dwattr $C$DW$41, DW_AT_decl_line(0x167)
     917                    .dwattr $C$DW$41, DW_AT_decl_column(0x25)
     918                    .dwattr $C$DW$41, DW_AT_TI_max_frame_size(0x14)
     919                    .dwpsn  file "C:/ti/ccs1110/ccs/tools/compiler/ti-cgt-msp430_21.6.0.LTS/include/_defs.h",line 
     920            
     921                    .dwfde $C$DW$CIE, __isnormall
     922            $C$DW$42        .dwtag  DW_TAG_formal_parameter
     923                    .dwattr $C$DW$42, DW_AT_name("e")
     924                    .dwattr $C$DW$42, DW_AT_TI_symbol_name("e")
     925                    .dwattr $C$DW$42, DW_AT_type(*$C$DW$T$18)
     926                    .dwattr $C$DW$42, DW_AT_location[DW_OP_reg12]
     927            
     928            
     929            ;*****************************************************************************
     930            ;* FUNCTION NAME: __isnormall                                                *
     931            ;*                                                                           *
MSP430 Assembler PC v21.6.0 Thu Jan 27 17:18:09 2022

Copyright (c) 2003-2018 Texas Instruments Incorporated
C:\Users\d_oti\AppData\Local\Temp\{7C157F18-368C-4A2C-B4B8-F2D54C4F90C9} PAGE   19

     932            ;*   Regs Modified     : SP,SR,r6,r7,r8,r9,r10,r11,r12,r13,r14,r15           *
     933            ;*   Regs Used         : SP,SR,r6,r7,r8,r9,r10,r11,r12,r13,r14,r15           *
     934            ;*   Local Frame Size  : 0 Args + 8 Auto + 10 Save = 18 byte                 *
     935            ;*****************************************************************************
     936 000000       __isnormall:
     937            ;* --------------------------------------------------------------------------*
     938                    .dwcfi  cfa_offset, 2
     939                    .dwcfi  save_reg_to_mem, 16, -2
     940 000000 120A          PUSH.W    r10                   ; [] 
     941                    .dwcfi  cfa_offset, 4
     942                    .dwcfi  save_reg_to_mem, 10, -4
     943 000002 1209          PUSH.W    r9                    ; [] 
     944                    .dwcfi  cfa_offset, 6
     945                    .dwcfi  save_reg_to_mem, 9, -6
     946 000004 1208          PUSH.W    r8                    ; [] 
     947                    .dwcfi  cfa_offset, 8
     948                    .dwcfi  save_reg_to_mem, 8, -8
     949 000006 1207          PUSH.W    r7                    ; [] 
     950                    .dwcfi  cfa_offset, 10
     951                    .dwcfi  save_reg_to_mem, 7, -10
     952 000008 1206          PUSH.W    r6                    ; [] 
     953                    .dwcfi  cfa_offset, 12
     954                    .dwcfi  save_reg_to_mem, 6, -12
     955 00000a 8231          SUB.W     #8,SP                 ; [] 
     956                    .dwcfi  cfa_offset, 20
     957            $C$DW$43        .dwtag  DW_TAG_variable
     958                    .dwattr $C$DW$43, DW_AT_name("e")
     959                    .dwattr $C$DW$43, DW_AT_TI_symbol_name("e")
     960                    .dwattr $C$DW$43, DW_AT_type(*$C$DW$T$18)
     961                    .dwattr $C$DW$43, DW_AT_location[DW_OP_breg1 0]
     962            
     963 00000c 4C81          MOV.W     r12,0(SP)             ; [] |360| 
         00000e 0000 
     964 000010 4D81          MOV.W     r13,2(SP)             ; [] |360| 
         000012 0002 
     965 000014 4E81          MOV.W     r14,4(SP)             ; [] |360| 
         000016 0004 
     966 000018 4F81          MOV.W     r15,6(SP)             ; [] |360| 
         00001a 0006 
     967                    .dwpsn  file "C:/ti/ccs1110/ccs/tools/compiler/ti-cgt-msp430_21.6.0.LTS/include/_defs.h",line 
     968 00001c 4307          MOV.W     #0,r7                 ; [] |360| 
     969 00001e 4306          MOV.W     #0,r6                 ; [] |360| 
     970 000020 4128          MOV.W     0(SP),r8              ; [] |360| 
     971 000022 4119          MOV.W     2(SP),r9              ; [] |360| 
         000024 0002 
     972 000026 411A          MOV.W     4(SP),r10             ; [] |360| 
         000028 0004 
     973 00002a 4F0B          MOV.W     r15,r11               ; [] |360| 
     974 00002c 403C          MOV.W     #52,r12               ; [] |360| 
         00002e 0034 
     975            $C$DW$44        .dwtag  DW_TAG_TI_branch
     976                    .dwattr $C$DW$44, DW_AT_low_pc(0x00)
     977                    .dwattr $C$DW$44, DW_AT_name("__mspabi_srlll")
     978                    .dwattr $C$DW$44, DW_AT_TI_call
     979            
MSP430 Assembler PC v21.6.0 Thu Jan 27 17:18:09 2022

Copyright (c) 2003-2018 Texas Instruments Incorporated
C:\Users\d_oti\AppData\Local\Temp\{7C157F18-368C-4A2C-B4B8-F2D54C4F90C9} PAGE   20

     980 000030 12B0          CALL      #__mspabi_srlll       ; [] |360| 
         000032 0000!
     981                                                      ; [] |360| 
     982 000034 F03C          AND.W     #2047,r12             ; [] |360| 
         000036 07FF 
     983 000038 F30D          AND.W     #0,r13                ; [] |360| 
     984 00003a F30E          AND.W     #0,r14                ; [] |360| 
     985 00003c F30F          AND.W     #0,r15                ; [] |360| 
     986 00003e 930F          TST.W     r15                   ; [] |360| 
     987 000040 2007          JNE       $C$L19                ; [] |360| 
     988                                                      ; [] |360| 
     989            ;* --------------------------------------------------------------------------*
     990 000042 930E          TST.W     r14                   ; [] |360| 
     991 000044 2005          JNE       $C$L19                ; [] |360| 
     992                                                      ; [] |360| 
     993            ;* --------------------------------------------------------------------------*
     994 000046 930D          TST.W     r13                   ; [] |360| 
     995 000048 2003          JNE       $C$L19                ; [] |360| 
     996                                                      ; [] |360| 
     997            ;* --------------------------------------------------------------------------*
     998 00004a 930C          TST.W     r12                   ; [] |360| 
     999 00004c 2001          JNE       $C$L19                ; [] |360| 
    1000                                                      ; [] |360| 
    1001            ;* --------------------------------------------------------------------------*
    1002 00004e 4316          MOV.W     #1,r6                 ; [] |360| 
    1003            ;* --------------------------------------------------------------------------*
    1004 000050       $C$L19:    
    1005 000050 9306          TST.W     r6                    ; [] |360| 
    1006 000052 200C          JNE       $C$L21                ; [] |360| 
    1007                                                      ; [] |360| 
    1008            ;* --------------------------------------------------------------------------*
    1009 000054 430E          MOV.W     #0,r14                ; [] |360| 
    1010 000056 411F          MOV.W     6(SP),r15             ; [] |360| 
         000058 0006 
    1011 00005a F03F          AND.W     #32752,r15            ; [] |360| 
         00005c 7FF0 
    1012 00005e 903F          CMP.W     #32752,r15            ; [] |360| 
         000060 7FF0 
    1013 000062 2001          JNE       $C$L20                ; [] |360| 
    1014                                                      ; [] |360| 
    1015            ;* --------------------------------------------------------------------------*
    1016 000064 431E          MOV.W     #1,r14                ; [] |360| 
    1017            ;* --------------------------------------------------------------------------*
    1018 000066       $C$L20:    
    1019 000066 930E          TST.W     r14                   ; [] |360| 
    1020 000068 2001          JNE       $C$L21                ; [] |360| 
    1021                                                      ; [] |360| 
    1022            ;* --------------------------------------------------------------------------*
    1023 00006a 4317          MOV.W     #1,r7                 ; [] |360| 
    1024            ;* --------------------------------------------------------------------------*
    1025 00006c       $C$L21:    
    1026 00006c 470C          MOV.W     r7,r12                ; [] |360| 
    1027                    .dwpsn  file "C:/ti/ccs1110/ccs/tools/compiler/ti-cgt-msp430_21.6.0.LTS/include/_defs.h",line 
    1028 00006e 5231          ADD.W     #8,SP                 ; [] 
    1029                    .dwcfi  cfa_offset, 12
MSP430 Assembler PC v21.6.0 Thu Jan 27 17:18:09 2022

Copyright (c) 2003-2018 Texas Instruments Incorporated
C:\Users\d_oti\AppData\Local\Temp\{7C157F18-368C-4A2C-B4B8-F2D54C4F90C9} PAGE   21

    1030            $C$DW$45        .dwtag  DW_TAG_TI_branch
    1031                    .dwattr $C$DW$45, DW_AT_low_pc(0x00)
    1032                    .dwattr $C$DW$45, DW_AT_TI_return
    1033            
    1034 000070 4030          BR        #__mspabi_func_epilog_5 ; [] 
         000072 0000!
    1035                    ; [] 
    1036                    .dwattr $C$DW$41, DW_AT_TI_end_file("C:/ti/ccs1110/ccs/tools/compiler/ti-cgt-msp430_21.6.0.LTS
    1037                    .dwattr $C$DW$41, DW_AT_TI_end_line(0x169)
    1038                    .dwattr $C$DW$41, DW_AT_TI_end_column(0x31)
    1039                    .dwendentry
    1040                    .dwendtag $C$DW$41
    1041            
    1042 000000               .sect   ".text:__signbit"
    1043                    .clink
    1044                    .global __signbit
    1045            
    1046            $C$DW$46        .dwtag  DW_TAG_subprogram
    1047                    .dwattr $C$DW$46, DW_AT_name("__signbit")
    1048                    .dwattr $C$DW$46, DW_AT_low_pc(__signbit)
    1049                    .dwattr $C$DW$46, DW_AT_high_pc(0x00)
    1050                    .dwattr $C$DW$46, DW_AT_TI_symbol_name("__signbit")
    1051                    .dwattr $C$DW$46, DW_AT_external
    1052                    .dwattr $C$DW$46, DW_AT_type(*$C$DW$T$10)
    1053                    .dwattr $C$DW$46, DW_AT_TI_begin_file("C:/ti/ccs1110/ccs/tools/compiler/ti-cgt-msp430_21.6.0.L
    1054                    .dwattr $C$DW$46, DW_AT_TI_begin_line(0x16b)
    1055                    .dwattr $C$DW$46, DW_AT_TI_begin_column(0x25)
    1056                    .dwattr $C$DW$46, DW_AT_decl_file("C:/ti/ccs1110/ccs/tools/compiler/ti-cgt-msp430_21.6.0.LTS/i
    1057                    .dwattr $C$DW$46, DW_AT_decl_line(0x16b)
    1058                    .dwattr $C$DW$46, DW_AT_decl_column(0x25)
    1059                    .dwattr $C$DW$46, DW_AT_TI_max_frame_size(0x0c)
    1060                    .dwpsn  file "C:/ti/ccs1110/ccs/tools/compiler/ti-cgt-msp430_21.6.0.LTS/include/_defs.h",line 
    1061            
    1062                    .dwfde $C$DW$CIE, __signbit
    1063            $C$DW$47        .dwtag  DW_TAG_formal_parameter
    1064                    .dwattr $C$DW$47, DW_AT_name("d")
    1065                    .dwattr $C$DW$47, DW_AT_TI_symbol_name("d")
    1066                    .dwattr $C$DW$47, DW_AT_type(*$C$DW$T$17)
    1067                    .dwattr $C$DW$47, DW_AT_location[DW_OP_reg12]
    1068            
    1069            
    1070            ;*****************************************************************************
    1071            ;* FUNCTION NAME: __signbit                                                  *
    1072            ;*                                                                           *
    1073            ;*   Regs Modified     : SP,SR,r10,r11,r12,r13,r14,r15                       *
    1074            ;*   Regs Used         : SP,SR,r10,r11,r12,r13,r14,r15                       *
    1075            ;*   Local Frame Size  : 0 Args + 8 Auto + 2 Save = 10 byte                  *
    1076            ;*****************************************************************************
    1077 000000       __signbit:
    1078            ;* --------------------------------------------------------------------------*
    1079                    .dwcfi  cfa_offset, 2
    1080                    .dwcfi  save_reg_to_mem, 16, -2
    1081 000000 120A          PUSH.W    r10                   ; [] 
    1082                    .dwcfi  cfa_offset, 4
    1083                    .dwcfi  save_reg_to_mem, 10, -4
MSP430 Assembler PC v21.6.0 Thu Jan 27 17:18:09 2022

Copyright (c) 2003-2018 Texas Instruments Incorporated
C:\Users\d_oti\AppData\Local\Temp\{7C157F18-368C-4A2C-B4B8-F2D54C4F90C9} PAGE   22

    1084 000002 8231          SUB.W     #8,SP                 ; [] 
    1085                    .dwcfi  cfa_offset, 12
    1086            $C$DW$48        .dwtag  DW_TAG_variable
    1087                    .dwattr $C$DW$48, DW_AT_name("d")
    1088                    .dwattr $C$DW$48, DW_AT_TI_symbol_name("d")
    1089                    .dwattr $C$DW$48, DW_AT_type(*$C$DW$T$17)
    1090                    .dwattr $C$DW$48, DW_AT_location[DW_OP_breg1 0]
    1091            
    1092 000004 4C81          MOV.W     r12,0(SP)             ; [] |364| 
         000006 0000 
    1093 000008 4D81          MOV.W     r13,2(SP)             ; [] |364| 
         00000a 0002 
    1094 00000c 4E81          MOV.W     r14,4(SP)             ; [] |364| 
         00000e 0004 
    1095 000010 4F81          MOV.W     r15,6(SP)             ; [] |364| 
         000012 0006 
    1096                    .dwpsn  file "C:/ti/ccs1110/ccs/tools/compiler/ti-cgt-msp430_21.6.0.LTS/include/_defs.h",line 
    1097 000014 430C          MOV.W     #0,r12                ; [] |364| 
    1098 000016 430A          MOV.W     #0,r10                ; [] |364| 
    1099 000018 412B          MOV.W     0(SP),r11             ; [] |364| 
    1100 00001a 411D          MOV.W     2(SP),r13             ; [] |364| 
         00001c 0002 
    1101 00001e 411E          MOV.W     4(SP),r14             ; [] |364| 
         000020 0004 
    1102 000022 F30B          AND.W     #0,r11                ; [] |364| 
    1103 000024 F30D          AND.W     #0,r13                ; [] |364| 
    1104 000026 F30E          AND.W     #0,r14                ; [] |364| 
    1105 000028 F03F          AND.W     #32768,r15            ; [] |364| 
         00002a 8000 
    1106 00002c 930F          TST.W     r15                   ; [] |364| 
    1107 00002e 2007          JNE       $C$L22                ; [] |364| 
    1108                                                      ; [] |364| 
    1109            ;* --------------------------------------------------------------------------*
    1110 000030 930E          TST.W     r14                   ; [] |364| 
    1111 000032 2005          JNE       $C$L22                ; [] |364| 
    1112                                                      ; [] |364| 
    1113            ;* --------------------------------------------------------------------------*
    1114 000034 930D          TST.W     r13                   ; [] |364| 
    1115 000036 2003          JNE       $C$L22                ; [] |364| 
    1116                                                      ; [] |364| 
    1117            ;* --------------------------------------------------------------------------*
    1118 000038 930B          TST.W     r11                   ; [] |364| 
    1119 00003a 2001          JNE       $C$L22                ; [] |364| 
    1120                                                      ; [] |364| 
    1121            ;* --------------------------------------------------------------------------*
    1122 00003c 431A          MOV.W     #1,r10                ; [] |364| 
    1123            ;* --------------------------------------------------------------------------*
    1124 00003e       $C$L22:    
    1125 00003e 930A          TST.W     r10                   ; [] |364| 
    1126 000040 2001          JNE       $C$L23                ; [] |364| 
    1127                                                      ; [] |364| 
    1128            ;* --------------------------------------------------------------------------*
    1129 000042 431C          MOV.W     #1,r12                ; [] |364| 
    1130            ;* --------------------------------------------------------------------------*
    1131 000044       $C$L23:    
MSP430 Assembler PC v21.6.0 Thu Jan 27 17:18:09 2022

Copyright (c) 2003-2018 Texas Instruments Incorporated
C:\Users\d_oti\AppData\Local\Temp\{7C157F18-368C-4A2C-B4B8-F2D54C4F90C9} PAGE   23

    1132                    .dwpsn  file "C:/ti/ccs1110/ccs/tools/compiler/ti-cgt-msp430_21.6.0.LTS/include/_defs.h",line 
    1133 000044 5231          ADD.W     #8,SP                 ; [] 
    1134                    .dwcfi  cfa_offset, 4
    1135 000046 413A          POP       r10                   ; [] 
    1136                    .dwcfi  restore_reg, 10
    1137                    .dwcfi  cfa_offset, 2
    1138            $C$DW$49        .dwtag  DW_TAG_TI_branch
    1139                    .dwattr $C$DW$49, DW_AT_low_pc(0x00)
    1140                    .dwattr $C$DW$49, DW_AT_TI_return
    1141            
    1142 000048 4130          RET       ; [] 
    1143                    ; [] 
    1144                    .dwattr $C$DW$46, DW_AT_TI_end_file("C:/ti/ccs1110/ccs/tools/compiler/ti-cgt-msp430_21.6.0.LTS
    1145                    .dwattr $C$DW$46, DW_AT_TI_end_line(0x16c)
    1146                    .dwattr $C$DW$46, DW_AT_TI_end_column(0x2a)
    1147                    .dwendentry
    1148                    .dwendtag $C$DW$46
    1149            
    1150 000000               .sect   ".text:__signbitf"
    1151                    .clink
    1152                    .global __signbitf
    1153            
    1154            $C$DW$50        .dwtag  DW_TAG_subprogram
    1155                    .dwattr $C$DW$50, DW_AT_name("__signbitf")
    1156                    .dwattr $C$DW$50, DW_AT_low_pc(__signbitf)
    1157                    .dwattr $C$DW$50, DW_AT_high_pc(0x00)
    1158                    .dwattr $C$DW$50, DW_AT_TI_symbol_name("__signbitf")
    1159                    .dwattr $C$DW$50, DW_AT_external
    1160                    .dwattr $C$DW$50, DW_AT_type(*$C$DW$T$10)
    1161                    .dwattr $C$DW$50, DW_AT_TI_begin_file("C:/ti/ccs1110/ccs/tools/compiler/ti-cgt-msp430_21.6.0.L
    1162                    .dwattr $C$DW$50, DW_AT_TI_begin_line(0x16d)
    1163                    .dwattr $C$DW$50, DW_AT_TI_begin_column(0x25)
    1164                    .dwattr $C$DW$50, DW_AT_decl_file("C:/ti/ccs1110/ccs/tools/compiler/ti-cgt-msp430_21.6.0.LTS/i
    1165                    .dwattr $C$DW$50, DW_AT_decl_line(0x16d)
    1166                    .dwattr $C$DW$50, DW_AT_decl_column(0x25)
    1167                    .dwattr $C$DW$50, DW_AT_TI_max_frame_size(0x06)
    1168                    .dwpsn  file "C:/ti/ccs1110/ccs/tools/compiler/ti-cgt-msp430_21.6.0.LTS/include/_defs.h",line 
    1169            
    1170                    .dwfde $C$DW$CIE, __signbitf
    1171            $C$DW$51        .dwtag  DW_TAG_formal_parameter
    1172                    .dwattr $C$DW$51, DW_AT_name("f")
    1173                    .dwattr $C$DW$51, DW_AT_TI_symbol_name("f")
    1174                    .dwattr $C$DW$51, DW_AT_type(*$C$DW$T$16)
    1175                    .dwattr $C$DW$51, DW_AT_location[DW_OP_reg12]
    1176            
    1177            
    1178            ;*****************************************************************************
    1179            ;* FUNCTION NAME: __signbitf                                                 *
    1180            ;*                                                                           *
    1181            ;*   Regs Modified     : SP,SR,r12,r15                                       *
    1182            ;*   Regs Used         : SP,SR,r12,r13,r15                                   *
    1183            ;*   Local Frame Size  : 0 Args + 4 Auto + 0 Save = 4 byte                   *
    1184            ;*****************************************************************************
    1185 000000       __signbitf:
    1186            ;* --------------------------------------------------------------------------*
MSP430 Assembler PC v21.6.0 Thu Jan 27 17:18:09 2022

Copyright (c) 2003-2018 Texas Instruments Incorporated
C:\Users\d_oti\AppData\Local\Temp\{7C157F18-368C-4A2C-B4B8-F2D54C4F90C9} PAGE   24

    1187                    .dwcfi  cfa_offset, 2
    1188                    .dwcfi  save_reg_to_mem, 16, -2
    1189 000000 8221          SUB.W     #4,SP                 ; [] 
    1190                    .dwcfi  cfa_offset, 6
    1191            $C$DW$52        .dwtag  DW_TAG_variable
    1192                    .dwattr $C$DW$52, DW_AT_name("f")
    1193                    .dwattr $C$DW$52, DW_AT_TI_symbol_name("f")
    1194                    .dwattr $C$DW$52, DW_AT_type(*$C$DW$T$16)
    1195                    .dwattr $C$DW$52, DW_AT_location[DW_OP_breg1 0]
    1196            
    1197 000002 4C81          MOV.W     r12,0(SP)             ; [] |366| 
         000004 0000 
    1198 000006 4D81          MOV.W     r13,2(SP)             ; [] |366| 
         000008 0002 
    1199                    .dwpsn  file "C:/ti/ccs1110/ccs/tools/compiler/ti-cgt-msp430_21.6.0.LTS/include/_defs.h",line 
    1200 00000a 430C          MOV.W     #0,r12                ; [] |366| 
    1201 00000c 430F          MOV.W     #0,r15                ; [] |366| 
    1202 00000e 930D          TST.W     r13                   ; [] |366| 
    1203 000010 3801          JL        $C$L24                ; [] |366| 
    1204                                                      ; [] |366| 
    1205            ;* --------------------------------------------------------------------------*
    1206 000012 431F          MOV.W     #1,r15                ; [] |366| 
    1207            ;* --------------------------------------------------------------------------*
    1208 000014       $C$L24:    
    1209 000014 930F          TST.W     r15                   ; [] |366| 
    1210 000016 2001          JNE       $C$L25                ; [] |366| 
    1211                                                      ; [] |366| 
    1212            ;* --------------------------------------------------------------------------*
    1213 000018 431C          MOV.W     #1,r12                ; [] |366| 
    1214            ;* --------------------------------------------------------------------------*
    1215 00001a       $C$L25:    
    1216                    .dwpsn  file "C:/ti/ccs1110/ccs/tools/compiler/ti-cgt-msp430_21.6.0.LTS/include/_defs.h",line 
    1217 00001a 5221          ADD.W     #4,SP                 ; [] 
    1218                    .dwcfi  cfa_offset, 2
    1219            $C$DW$53        .dwtag  DW_TAG_TI_branch
    1220                    .dwattr $C$DW$53, DW_AT_low_pc(0x00)
    1221                    .dwattr $C$DW$53, DW_AT_TI_return
    1222            
    1223 00001c 4130          RET       ; [] 
    1224                    ; [] 
    1225                    .dwattr $C$DW$50, DW_AT_TI_end_file("C:/ti/ccs1110/ccs/tools/compiler/ti-cgt-msp430_21.6.0.LTS
    1226                    .dwattr $C$DW$50, DW_AT_TI_end_line(0x16e)
    1227                    .dwattr $C$DW$50, DW_AT_TI_end_column(0x29)
    1228                    .dwendentry
    1229                    .dwendtag $C$DW$50
    1230            
    1231 000000               .sect   ".text:__signbitl"
    1232                    .clink
    1233                    .global __signbitl
    1234            
    1235            $C$DW$54        .dwtag  DW_TAG_subprogram
    1236                    .dwattr $C$DW$54, DW_AT_name("__signbitl")
    1237                    .dwattr $C$DW$54, DW_AT_low_pc(__signbitl)
    1238                    .dwattr $C$DW$54, DW_AT_high_pc(0x00)
    1239                    .dwattr $C$DW$54, DW_AT_TI_symbol_name("__signbitl")
MSP430 Assembler PC v21.6.0 Thu Jan 27 17:18:09 2022

Copyright (c) 2003-2018 Texas Instruments Incorporated
C:\Users\d_oti\AppData\Local\Temp\{7C157F18-368C-4A2C-B4B8-F2D54C4F90C9} PAGE   25

    1240                    .dwattr $C$DW$54, DW_AT_external
    1241                    .dwattr $C$DW$54, DW_AT_type(*$C$DW$T$10)
    1242                    .dwattr $C$DW$54, DW_AT_TI_begin_file("C:/ti/ccs1110/ccs/tools/compiler/ti-cgt-msp430_21.6.0.L
    1243                    .dwattr $C$DW$54, DW_AT_TI_begin_line(0x16f)
    1244                    .dwattr $C$DW$54, DW_AT_TI_begin_column(0x25)
    1245                    .dwattr $C$DW$54, DW_AT_decl_file("C:/ti/ccs1110/ccs/tools/compiler/ti-cgt-msp430_21.6.0.LTS/i
    1246                    .dwattr $C$DW$54, DW_AT_decl_line(0x16f)
    1247                    .dwattr $C$DW$54, DW_AT_decl_column(0x25)
    1248                    .dwattr $C$DW$54, DW_AT_TI_max_frame_size(0x0c)
    1249                    .dwpsn  file "C:/ti/ccs1110/ccs/tools/compiler/ti-cgt-msp430_21.6.0.LTS/include/_defs.h",line 
    1250            
    1251                    .dwfde $C$DW$CIE, __signbitl
    1252            $C$DW$55        .dwtag  DW_TAG_formal_parameter
    1253                    .dwattr $C$DW$55, DW_AT_name("e")
    1254                    .dwattr $C$DW$55, DW_AT_TI_symbol_name("e")
    1255                    .dwattr $C$DW$55, DW_AT_type(*$C$DW$T$18)
    1256                    .dwattr $C$DW$55, DW_AT_location[DW_OP_reg12]
    1257            
    1258            
    1259            ;*****************************************************************************
    1260            ;* FUNCTION NAME: __signbitl                                                 *
    1261            ;*                                                                           *
    1262            ;*   Regs Modified     : SP,SR,r10,r11,r12,r13,r14,r15                       *
    1263            ;*   Regs Used         : SP,SR,r10,r11,r12,r13,r14,r15                       *
    1264            ;*   Local Frame Size  : 0 Args + 8 Auto + 2 Save = 10 byte                  *
    1265            ;*****************************************************************************
    1266 000000       __signbitl:
    1267            ;* --------------------------------------------------------------------------*
    1268                    .dwcfi  cfa_offset, 2
    1269                    .dwcfi  save_reg_to_mem, 16, -2
    1270 000000 120A          PUSH.W    r10                   ; [] 
    1271                    .dwcfi  cfa_offset, 4
    1272                    .dwcfi  save_reg_to_mem, 10, -4
    1273 000002 8231          SUB.W     #8,SP                 ; [] 
    1274                    .dwcfi  cfa_offset, 12
    1275            $C$DW$56        .dwtag  DW_TAG_variable
    1276                    .dwattr $C$DW$56, DW_AT_name("e")
    1277                    .dwattr $C$DW$56, DW_AT_TI_symbol_name("e")
    1278                    .dwattr $C$DW$56, DW_AT_type(*$C$DW$T$18)
    1279                    .dwattr $C$DW$56, DW_AT_location[DW_OP_breg1 0]
    1280            
    1281 000004 4C81          MOV.W     r12,0(SP)             ; [] |368| 
         000006 0000 
    1282 000008 4D81          MOV.W     r13,2(SP)             ; [] |368| 
         00000a 0002 
    1283 00000c 4E81          MOV.W     r14,4(SP)             ; [] |368| 
         00000e 0004 
    1284 000010 4F81          MOV.W     r15,6(SP)             ; [] |368| 
         000012 0006 
    1285                    .dwpsn  file "C:/ti/ccs1110/ccs/tools/compiler/ti-cgt-msp430_21.6.0.LTS/include/_defs.h",line 
    1286 000014 430C          MOV.W     #0,r12                ; [] |368| 
    1287 000016 430A          MOV.W     #0,r10                ; [] |368| 
    1288 000018 412B          MOV.W     0(SP),r11             ; [] |368| 
    1289 00001a 411D          MOV.W     2(SP),r13             ; [] |368| 
         00001c 0002 
MSP430 Assembler PC v21.6.0 Thu Jan 27 17:18:09 2022

Copyright (c) 2003-2018 Texas Instruments Incorporated
C:\Users\d_oti\AppData\Local\Temp\{7C157F18-368C-4A2C-B4B8-F2D54C4F90C9} PAGE   26

    1290 00001e 411E          MOV.W     4(SP),r14             ; [] |368| 
         000020 0004 
    1291 000022 F30B          AND.W     #0,r11                ; [] |368| 
    1292 000024 F30D          AND.W     #0,r13                ; [] |368| 
    1293 000026 F30E          AND.W     #0,r14                ; [] |368| 
    1294 000028 F03F          AND.W     #32768,r15            ; [] |368| 
         00002a 8000 
    1295 00002c 930F          TST.W     r15                   ; [] |368| 
    1296 00002e 2007          JNE       $C$L26                ; [] |368| 
    1297                                                      ; [] |368| 
    1298            ;* --------------------------------------------------------------------------*
    1299 000030 930E          TST.W     r14                   ; [] |368| 
    1300 000032 2005          JNE       $C$L26                ; [] |368| 
    1301                                                      ; [] |368| 
    1302            ;* --------------------------------------------------------------------------*
    1303 000034 930D          TST.W     r13                   ; [] |368| 
    1304 000036 2003          JNE       $C$L26                ; [] |368| 
    1305                                                      ; [] |368| 
    1306            ;* --------------------------------------------------------------------------*
    1307 000038 930B          TST.W     r11                   ; [] |368| 
    1308 00003a 2001          JNE       $C$L26                ; [] |368| 
    1309                                                      ; [] |368| 
    1310            ;* --------------------------------------------------------------------------*
    1311 00003c 431A          MOV.W     #1,r10                ; [] |368| 
    1312            ;* --------------------------------------------------------------------------*
    1313 00003e       $C$L26:    
    1314 00003e 930A          TST.W     r10                   ; [] |368| 
    1315 000040 2001          JNE       $C$L27                ; [] |368| 
    1316                                                      ; [] |368| 
    1317            ;* --------------------------------------------------------------------------*
    1318 000042 431C          MOV.W     #1,r12                ; [] |368| 
    1319            ;* --------------------------------------------------------------------------*
    1320 000044       $C$L27:    
    1321                    .dwpsn  file "C:/ti/ccs1110/ccs/tools/compiler/ti-cgt-msp430_21.6.0.LTS/include/_defs.h",line 
    1322 000044 5231          ADD.W     #8,SP                 ; [] 
    1323                    .dwcfi  cfa_offset, 4
    1324 000046 413A          POP       r10                   ; [] 
    1325                    .dwcfi  restore_reg, 10
    1326                    .dwcfi  cfa_offset, 2
    1327            $C$DW$57        .dwtag  DW_TAG_TI_branch
    1328                    .dwattr $C$DW$57, DW_AT_low_pc(0x00)
    1329                    .dwattr $C$DW$57, DW_AT_TI_return
    1330            
    1331 000048 4130          RET       ; [] 
    1332                    ; [] 
    1333                    .dwattr $C$DW$54, DW_AT_TI_end_file("C:/ti/ccs1110/ccs/tools/compiler/ti-cgt-msp430_21.6.0.LTS
    1334                    .dwattr $C$DW$54, DW_AT_TI_end_line(0x170)
    1335                    .dwattr $C$DW$54, DW_AT_TI_end_column(0x2b)
    1336                    .dwendentry
    1337                    .dwendtag $C$DW$54
    1338            
    1339 000000               .sect   ".text:__isinff"
    1340                    .clink
    1341                    .global __isinff
    1342            
MSP430 Assembler PC v21.6.0 Thu Jan 27 17:18:09 2022

Copyright (c) 2003-2018 Texas Instruments Incorporated
C:\Users\d_oti\AppData\Local\Temp\{7C157F18-368C-4A2C-B4B8-F2D54C4F90C9} PAGE   27

    1343            $C$DW$58        .dwtag  DW_TAG_subprogram
    1344                    .dwattr $C$DW$58, DW_AT_name("__isinff")
    1345                    .dwattr $C$DW$58, DW_AT_low_pc(__isinff)
    1346                    .dwattr $C$DW$58, DW_AT_high_pc(0x00)
    1347                    .dwattr $C$DW$58, DW_AT_TI_symbol_name("__isinff")
    1348                    .dwattr $C$DW$58, DW_AT_external
    1349                    .dwattr $C$DW$58, DW_AT_type(*$C$DW$T$10)
    1350                    .dwattr $C$DW$58, DW_AT_TI_begin_file("C:/ti/ccs1110/ccs/tools/compiler/ti-cgt-msp430_21.6.0.L
    1351                    .dwattr $C$DW$58, DW_AT_TI_begin_line(0x176)
    1352                    .dwattr $C$DW$58, DW_AT_TI_begin_column(0x25)
    1353                    .dwattr $C$DW$58, DW_AT_decl_file("C:/ti/ccs1110/ccs/tools/compiler/ti-cgt-msp430_21.6.0.LTS/i
    1354                    .dwattr $C$DW$58, DW_AT_decl_line(0x176)
    1355                    .dwattr $C$DW$58, DW_AT_decl_column(0x25)
    1356                    .dwattr $C$DW$58, DW_AT_TI_max_frame_size(0x06)
    1357                    .dwpsn  file "C:/ti/ccs1110/ccs/tools/compiler/ti-cgt-msp430_21.6.0.LTS/include/_defs.h",line 
    1358            
    1359                    .dwfde $C$DW$CIE, __isinff
    1360            $C$DW$59        .dwtag  DW_TAG_formal_parameter
    1361                    .dwattr $C$DW$59, DW_AT_name("f")
    1362                    .dwattr $C$DW$59, DW_AT_TI_symbol_name("f")
    1363                    .dwattr $C$DW$59, DW_AT_type(*$C$DW$T$16)
    1364                    .dwattr $C$DW$59, DW_AT_location[DW_OP_reg12]
    1365            
    1366            
    1367            ;*****************************************************************************
    1368            ;* FUNCTION NAME: __isinff                                                   *
    1369            ;*                                                                           *
    1370            ;*   Regs Modified     : SP,SR,r12,r13,r14,r15                               *
    1371            ;*   Regs Used         : SP,SR,r12,r13,r14,r15                               *
    1372            ;*   Local Frame Size  : 0 Args + 4 Auto + 0 Save = 4 byte                   *
    1373            ;*****************************************************************************
    1374 000000       __isinff:
    1375            ;* --------------------------------------------------------------------------*
    1376                    .dwcfi  cfa_offset, 2
    1377                    .dwcfi  save_reg_to_mem, 16, -2
    1378 000000 8221          SUB.W     #4,SP                 ; [] 
    1379                    .dwcfi  cfa_offset, 6
    1380            $C$DW$60        .dwtag  DW_TAG_variable
    1381                    .dwattr $C$DW$60, DW_AT_name("f")
    1382                    .dwattr $C$DW$60, DW_AT_TI_symbol_name("f")
    1383                    .dwattr $C$DW$60, DW_AT_type(*$C$DW$T$16)
    1384                    .dwattr $C$DW$60, DW_AT_location[DW_OP_breg1 0]
    1385            
    1386 000002 4C81          MOV.W     r12,0(SP)             ; [] |375| 
         000004 0000 
    1387 000006 4D81          MOV.W     r13,2(SP)             ; [] |375| 
         000008 0002 
    1388                    .dwpsn  file "C:/ti/ccs1110/ccs/tools/compiler/ti-cgt-msp430_21.6.0.LTS/include/_defs.h",line 
    1389 00000a 430C          MOV.W     #0,r12                ; [] |375| 
    1390 00000c 412F          MOV.W     0(SP),r15             ; [] |375| 
    1391 00000e 4D0E          MOV.W     r13,r14               ; [] |375| 
    1392 000010 F03E          AND.W     #32640,r14            ; [] |375| 
         000012 7F80 
    1393 000014 903E          CMP.W     #32640,r14            ; [] |375| 
         000016 7F80 
MSP430 Assembler PC v21.6.0 Thu Jan 27 17:18:09 2022

Copyright (c) 2003-2018 Texas Instruments Incorporated
C:\Users\d_oti\AppData\Local\Temp\{7C157F18-368C-4A2C-B4B8-F2D54C4F90C9} PAGE   28

    1394 000018 2008          JNE       $C$L28                ; [] |375| 
    1395                                                      ; [] |375| 
    1396            ;* --------------------------------------------------------------------------*
    1397 00001a F33F          AND.W     #65535,r15            ; [] |375| 
    1398 00001c F03D          AND.W     #127,r13              ; [] |375| 
         00001e 007F 
    1399 000020 930D          TST.W     r13                   ; [] |375| 
    1400 000022 2003          JNE       $C$L28                ; [] |375| 
    1401                                                      ; [] |375| 
    1402            ;* --------------------------------------------------------------------------*
    1403 000024 930F          TST.W     r15                   ; [] |375| 
    1404 000026 2001          JNE       $C$L28                ; [] |375| 
    1405                                                      ; [] |375| 
    1406            ;* --------------------------------------------------------------------------*
    1407 000028 431C          MOV.W     #1,r12                ; [] |375| 
    1408            ;* --------------------------------------------------------------------------*
    1409 00002a       $C$L28:    
    1410                    .dwpsn  file "C:/ti/ccs1110/ccs/tools/compiler/ti-cgt-msp430_21.6.0.LTS/include/_defs.h",line 
    1411 00002a 5221          ADD.W     #4,SP                 ; [] 
    1412                    .dwcfi  cfa_offset, 2
    1413            $C$DW$61        .dwtag  DW_TAG_TI_branch
    1414                    .dwattr $C$DW$61, DW_AT_low_pc(0x00)
    1415                    .dwattr $C$DW$61, DW_AT_TI_return
    1416            
    1417 00002c 4130          RET       ; [] 
    1418                    ; [] 
    1419                    .dwattr $C$DW$58, DW_AT_TI_end_file("C:/ti/ccs1110/ccs/tools/compiler/ti-cgt-msp430_21.6.0.LTS
    1420                    .dwattr $C$DW$58, DW_AT_TI_end_line(0x177)
    1421                    .dwattr $C$DW$58, DW_AT_TI_end_column(0x48)
    1422                    .dwendentry
    1423                    .dwendtag $C$DW$58
    1424            
    1425 000000               .sect   ".text:__isinf"
    1426                    .clink
    1427                    .global __isinf
    1428            
    1429            $C$DW$62        .dwtag  DW_TAG_subprogram
    1430                    .dwattr $C$DW$62, DW_AT_name("__isinf")
    1431                    .dwattr $C$DW$62, DW_AT_low_pc(__isinf)
    1432                    .dwattr $C$DW$62, DW_AT_high_pc(0x00)
    1433                    .dwattr $C$DW$62, DW_AT_TI_symbol_name("__isinf")
    1434                    .dwattr $C$DW$62, DW_AT_external
    1435                    .dwattr $C$DW$62, DW_AT_type(*$C$DW$T$10)
    1436                    .dwattr $C$DW$62, DW_AT_TI_begin_file("C:/ti/ccs1110/ccs/tools/compiler/ti-cgt-msp430_21.6.0.L
    1437                    .dwattr $C$DW$62, DW_AT_TI_begin_line(0x178)
    1438                    .dwattr $C$DW$62, DW_AT_TI_begin_column(0x25)
    1439                    .dwattr $C$DW$62, DW_AT_decl_file("C:/ti/ccs1110/ccs/tools/compiler/ti-cgt-msp430_21.6.0.LTS/i
    1440                    .dwattr $C$DW$62, DW_AT_decl_line(0x178)
    1441                    .dwattr $C$DW$62, DW_AT_decl_column(0x25)
    1442                    .dwattr $C$DW$62, DW_AT_TI_max_frame_size(0x0c)
    1443                    .dwpsn  file "C:/ti/ccs1110/ccs/tools/compiler/ti-cgt-msp430_21.6.0.LTS/include/_defs.h",line 
    1444            
    1445                    .dwfde $C$DW$CIE, __isinf
    1446            $C$DW$63        .dwtag  DW_TAG_formal_parameter
    1447                    .dwattr $C$DW$63, DW_AT_name("d")
MSP430 Assembler PC v21.6.0 Thu Jan 27 17:18:09 2022

Copyright (c) 2003-2018 Texas Instruments Incorporated
C:\Users\d_oti\AppData\Local\Temp\{7C157F18-368C-4A2C-B4B8-F2D54C4F90C9} PAGE   29

    1448                    .dwattr $C$DW$63, DW_AT_TI_symbol_name("d")
    1449                    .dwattr $C$DW$63, DW_AT_type(*$C$DW$T$17)
    1450                    .dwattr $C$DW$63, DW_AT_location[DW_OP_reg12]
    1451            
    1452            
    1453            ;*****************************************************************************
    1454            ;* FUNCTION NAME: __isinf                                                    *
    1455            ;*                                                                           *
    1456            ;*   Regs Modified     : SP,SR,r10,r11,r12,r13,r14,r15                       *
    1457            ;*   Regs Used         : SP,SR,r10,r11,r12,r13,r14,r15                       *
    1458            ;*   Local Frame Size  : 0 Args + 8 Auto + 2 Save = 10 byte                  *
    1459            ;*****************************************************************************
    1460 000000       __isinf:
    1461            ;* --------------------------------------------------------------------------*
    1462                    .dwcfi  cfa_offset, 2
    1463                    .dwcfi  save_reg_to_mem, 16, -2
    1464 000000 120A          PUSH.W    r10                   ; [] 
    1465                    .dwcfi  cfa_offset, 4
    1466                    .dwcfi  save_reg_to_mem, 10, -4
    1467 000002 8231          SUB.W     #8,SP                 ; [] 
    1468                    .dwcfi  cfa_offset, 12
    1469            $C$DW$64        .dwtag  DW_TAG_variable
    1470                    .dwattr $C$DW$64, DW_AT_name("d")
    1471                    .dwattr $C$DW$64, DW_AT_TI_symbol_name("d")
    1472                    .dwattr $C$DW$64, DW_AT_type(*$C$DW$T$17)
    1473                    .dwattr $C$DW$64, DW_AT_location[DW_OP_breg1 0]
    1474            
    1475 000004 4C81          MOV.W     r12,0(SP)             ; [] |377| 
         000006 0000 
    1476 000008 4D81          MOV.W     r13,2(SP)             ; [] |377| 
         00000a 0002 
    1477 00000c 4E81          MOV.W     r14,4(SP)             ; [] |377| 
         00000e 0004 
    1478 000010 4F81          MOV.W     r15,6(SP)             ; [] |377| 
         000012 0006 
    1479                    .dwpsn  file "C:/ti/ccs1110/ccs/tools/compiler/ti-cgt-msp430_21.6.0.LTS/include/_defs.h",line 
    1480 000014 430C          MOV.W     #0,r12                ; [] |377| 
    1481 000016 412B          MOV.W     0(SP),r11             ; [] |377| 
    1482 000018 411D          MOV.W     2(SP),r13             ; [] |377| 
         00001a 0002 
    1483 00001c 411E          MOV.W     4(SP),r14             ; [] |377| 
         00001e 0004 
    1484 000020 4F0A          MOV.W     r15,r10               ; [] |377| 
    1485 000022 F03A          AND.W     #32752,r10            ; [] |377| 
         000024 7FF0 
    1486 000026 903A          CMP.W     #32752,r10            ; [] |377| 
         000028 7FF0 
    1487 00002a 200E          JNE       $C$L29                ; [] |377| 
    1488                                                      ; [] |377| 
    1489            ;* --------------------------------------------------------------------------*
    1490 00002c F33B          AND.W     #65535,r11            ; [] |377| 
    1491 00002e F33D          AND.W     #65535,r13            ; [] |377| 
    1492 000030 F33E          AND.W     #65535,r14            ; [] |377| 
    1493 000032 F03F          AND.W     #15,r15               ; [] |377| 
         000034 000F 
MSP430 Assembler PC v21.6.0 Thu Jan 27 17:18:09 2022

Copyright (c) 2003-2018 Texas Instruments Incorporated
C:\Users\d_oti\AppData\Local\Temp\{7C157F18-368C-4A2C-B4B8-F2D54C4F90C9} PAGE   30

    1494 000036 930F          TST.W     r15                   ; [] |377| 
    1495 000038 2007          JNE       $C$L29                ; [] |377| 
    1496                                                      ; [] |377| 
    1497            ;* --------------------------------------------------------------------------*
    1498 00003a 930E          TST.W     r14                   ; [] |377| 
    1499 00003c 2005          JNE       $C$L29                ; [] |377| 
    1500                                                      ; [] |377| 
    1501            ;* --------------------------------------------------------------------------*
    1502 00003e 930D          TST.W     r13                   ; [] |377| 
    1503 000040 2003          JNE       $C$L29                ; [] |377| 
    1504                                                      ; [] |377| 
    1505            ;* --------------------------------------------------------------------------*
    1506 000042 930B          TST.W     r11                   ; [] |377| 
    1507 000044 2001          JNE       $C$L29                ; [] |377| 
    1508                                                      ; [] |377| 
    1509            ;* --------------------------------------------------------------------------*
    1510 000046 431C          MOV.W     #1,r12                ; [] |377| 
    1511            ;* --------------------------------------------------------------------------*
    1512 000048       $C$L29:    
    1513                    .dwpsn  file "C:/ti/ccs1110/ccs/tools/compiler/ti-cgt-msp430_21.6.0.LTS/include/_defs.h",line 
    1514 000048 5231          ADD.W     #8,SP                 ; [] 
    1515                    .dwcfi  cfa_offset, 4
    1516 00004a 413A          POP       r10                   ; [] 
    1517                    .dwcfi  restore_reg, 10
    1518                    .dwcfi  cfa_offset, 2
    1519            $C$DW$65        .dwtag  DW_TAG_TI_branch
    1520                    .dwattr $C$DW$65, DW_AT_low_pc(0x00)
    1521                    .dwattr $C$DW$65, DW_AT_TI_return
    1522            
    1523 00004c 4130          RET       ; [] 
    1524                    ; [] 
    1525                    .dwattr $C$DW$62, DW_AT_TI_end_file("C:/ti/ccs1110/ccs/tools/compiler/ti-cgt-msp430_21.6.0.LTS
    1526                    .dwattr $C$DW$62, DW_AT_TI_end_line(0x179)
    1527                    .dwattr $C$DW$62, DW_AT_TI_end_column(0x4a)
    1528                    .dwendentry
    1529                    .dwendtag $C$DW$62
    1530            
    1531 000000               .sect   ".text:__isinfl"
    1532                    .clink
    1533                    .global __isinfl
    1534            
    1535            $C$DW$66        .dwtag  DW_TAG_subprogram
    1536                    .dwattr $C$DW$66, DW_AT_name("__isinfl")
    1537                    .dwattr $C$DW$66, DW_AT_low_pc(__isinfl)
    1538                    .dwattr $C$DW$66, DW_AT_high_pc(0x00)
    1539                    .dwattr $C$DW$66, DW_AT_TI_symbol_name("__isinfl")
    1540                    .dwattr $C$DW$66, DW_AT_external
    1541                    .dwattr $C$DW$66, DW_AT_type(*$C$DW$T$10)
    1542                    .dwattr $C$DW$66, DW_AT_TI_begin_file("C:/ti/ccs1110/ccs/tools/compiler/ti-cgt-msp430_21.6.0.L
    1543                    .dwattr $C$DW$66, DW_AT_TI_begin_line(0x17a)
    1544                    .dwattr $C$DW$66, DW_AT_TI_begin_column(0x25)
    1545                    .dwattr $C$DW$66, DW_AT_decl_file("C:/ti/ccs1110/ccs/tools/compiler/ti-cgt-msp430_21.6.0.LTS/i
    1546                    .dwattr $C$DW$66, DW_AT_decl_line(0x17a)
    1547                    .dwattr $C$DW$66, DW_AT_decl_column(0x25)
    1548                    .dwattr $C$DW$66, DW_AT_TI_max_frame_size(0x0c)
MSP430 Assembler PC v21.6.0 Thu Jan 27 17:18:09 2022

Copyright (c) 2003-2018 Texas Instruments Incorporated
C:\Users\d_oti\AppData\Local\Temp\{7C157F18-368C-4A2C-B4B8-F2D54C4F90C9} PAGE   31

    1549                    .dwpsn  file "C:/ti/ccs1110/ccs/tools/compiler/ti-cgt-msp430_21.6.0.LTS/include/_defs.h",line 
    1550            
    1551                    .dwfde $C$DW$CIE, __isinfl
    1552            $C$DW$67        .dwtag  DW_TAG_formal_parameter
    1553                    .dwattr $C$DW$67, DW_AT_name("e")
    1554                    .dwattr $C$DW$67, DW_AT_TI_symbol_name("e")
    1555                    .dwattr $C$DW$67, DW_AT_type(*$C$DW$T$18)
    1556                    .dwattr $C$DW$67, DW_AT_location[DW_OP_reg12]
    1557            
    1558            
    1559            ;*****************************************************************************
    1560            ;* FUNCTION NAME: __isinfl                                                   *
    1561            ;*                                                                           *
    1562            ;*   Regs Modified     : SP,SR,r10,r11,r12,r13,r14,r15                       *
    1563            ;*   Regs Used         : SP,SR,r10,r11,r12,r13,r14,r15                       *
    1564            ;*   Local Frame Size  : 0 Args + 8 Auto + 2 Save = 10 byte                  *
    1565            ;*****************************************************************************
    1566 000000       __isinfl:
    1567            ;* --------------------------------------------------------------------------*
    1568                    .dwcfi  cfa_offset, 2
    1569                    .dwcfi  save_reg_to_mem, 16, -2
    1570 000000 120A          PUSH.W    r10                   ; [] 
    1571                    .dwcfi  cfa_offset, 4
    1572                    .dwcfi  save_reg_to_mem, 10, -4
    1573 000002 8231          SUB.W     #8,SP                 ; [] 
    1574                    .dwcfi  cfa_offset, 12
    1575            $C$DW$68        .dwtag  DW_TAG_variable
    1576                    .dwattr $C$DW$68, DW_AT_name("e")
    1577                    .dwattr $C$DW$68, DW_AT_TI_symbol_name("e")
    1578                    .dwattr $C$DW$68, DW_AT_type(*$C$DW$T$18)
    1579                    .dwattr $C$DW$68, DW_AT_location[DW_OP_breg1 0]
    1580            
    1581 000004 4C81          MOV.W     r12,0(SP)             ; [] |379| 
         000006 0000 
    1582 000008 4D81          MOV.W     r13,2(SP)             ; [] |379| 
         00000a 0002 
    1583 00000c 4E81          MOV.W     r14,4(SP)             ; [] |379| 
         00000e 0004 
    1584 000010 4F81          MOV.W     r15,6(SP)             ; [] |379| 
         000012 0006 
    1585                    .dwpsn  file "C:/ti/ccs1110/ccs/tools/compiler/ti-cgt-msp430_21.6.0.LTS/include/_defs.h",line 
    1586 000014 430C          MOV.W     #0,r12                ; [] |379| 
    1587 000016 412B          MOV.W     0(SP),r11             ; [] |379| 
    1588 000018 411D          MOV.W     2(SP),r13             ; [] |379| 
         00001a 0002 
    1589 00001c 411E          MOV.W     4(SP),r14             ; [] |379| 
         00001e 0004 
    1590 000020 4F0A          MOV.W     r15,r10               ; [] |379| 
    1591 000022 F03A          AND.W     #32752,r10            ; [] |379| 
         000024 7FF0 
    1592 000026 903A          CMP.W     #32752,r10            ; [] |379| 
         000028 7FF0 
    1593 00002a 200E          JNE       $C$L30                ; [] |379| 
    1594                                                      ; [] |379| 
    1595            ;* --------------------------------------------------------------------------*
MSP430 Assembler PC v21.6.0 Thu Jan 27 17:18:09 2022

Copyright (c) 2003-2018 Texas Instruments Incorporated
C:\Users\d_oti\AppData\Local\Temp\{7C157F18-368C-4A2C-B4B8-F2D54C4F90C9} PAGE   32

    1596 00002c F33B          AND.W     #65535,r11            ; [] |379| 
    1597 00002e F33D          AND.W     #65535,r13            ; [] |379| 
    1598 000030 F33E          AND.W     #65535,r14            ; [] |379| 
    1599 000032 F03F          AND.W     #15,r15               ; [] |379| 
         000034 000F 
    1600 000036 930F          TST.W     r15                   ; [] |379| 
    1601 000038 2007          JNE       $C$L30                ; [] |379| 
    1602                                                      ; [] |379| 
    1603            ;* --------------------------------------------------------------------------*
    1604 00003a 930E          TST.W     r14                   ; [] |379| 
    1605 00003c 2005          JNE       $C$L30                ; [] |379| 
    1606                                                      ; [] |379| 
    1607            ;* --------------------------------------------------------------------------*
    1608 00003e 930D          TST.W     r13                   ; [] |379| 
    1609 000040 2003          JNE       $C$L30                ; [] |379| 
    1610                                                      ; [] |379| 
    1611            ;* --------------------------------------------------------------------------*
    1612 000042 930B          TST.W     r11                   ; [] |379| 
    1613 000044 2001          JNE       $C$L30                ; [] |379| 
    1614                                                      ; [] |379| 
    1615            ;* --------------------------------------------------------------------------*
    1616 000046 431C          MOV.W     #1,r12                ; [] |379| 
    1617            ;* --------------------------------------------------------------------------*
    1618 000048       $C$L30:    
    1619                    .dwpsn  file "C:/ti/ccs1110/ccs/tools/compiler/ti-cgt-msp430_21.6.0.LTS/include/_defs.h",line 
    1620 000048 5231          ADD.W     #8,SP                 ; [] 
    1621                    .dwcfi  cfa_offset, 4
    1622 00004a 413A          POP       r10                   ; [] 
    1623                    .dwcfi  restore_reg, 10
    1624                    .dwcfi  cfa_offset, 2
    1625            $C$DW$69        .dwtag  DW_TAG_TI_branch
    1626                    .dwattr $C$DW$69, DW_AT_low_pc(0x00)
    1627                    .dwattr $C$DW$69, DW_AT_TI_return
    1628            
    1629 00004c 4130          RET       ; [] 
    1630                    ; [] 
    1631                    .dwattr $C$DW$66, DW_AT_TI_end_file("C:/ti/ccs1110/ccs/tools/compiler/ti-cgt-msp430_21.6.0.LTS
    1632                    .dwattr $C$DW$66, DW_AT_TI_end_line(0x17b)
    1633                    .dwattr $C$DW$66, DW_AT_TI_end_column(0x4c)
    1634                    .dwendentry
    1635                    .dwendtag $C$DW$66
    1636            
    1637 000000               .sect   ".text:__fpclassifyf"
    1638                    .clink
    1639                    .global __fpclassifyf
    1640            
    1641            $C$DW$70        .dwtag  DW_TAG_subprogram
    1642                    .dwattr $C$DW$70, DW_AT_name("__fpclassifyf")
    1643                    .dwattr $C$DW$70, DW_AT_low_pc(__fpclassifyf)
    1644                    .dwattr $C$DW$70, DW_AT_high_pc(0x00)
    1645                    .dwattr $C$DW$70, DW_AT_TI_symbol_name("__fpclassifyf")
    1646                    .dwattr $C$DW$70, DW_AT_external
    1647                    .dwattr $C$DW$70, DW_AT_type(*$C$DW$T$10)
    1648                    .dwattr $C$DW$70, DW_AT_TI_begin_file("C:/ti/ccs1110/ccs/tools/compiler/ti-cgt-msp430_21.6.0.L
    1649                    .dwattr $C$DW$70, DW_AT_TI_begin_line(0x18c)
MSP430 Assembler PC v21.6.0 Thu Jan 27 17:18:09 2022

Copyright (c) 2003-2018 Texas Instruments Incorporated
C:\Users\d_oti\AppData\Local\Temp\{7C157F18-368C-4A2C-B4B8-F2D54C4F90C9} PAGE   33

    1650                    .dwattr $C$DW$70, DW_AT_TI_begin_column(0x25)
    1651                    .dwattr $C$DW$70, DW_AT_decl_file("C:/ti/ccs1110/ccs/tools/compiler/ti-cgt-msp430_21.6.0.LTS/i
    1652                    .dwattr $C$DW$70, DW_AT_decl_line(0x18c)
    1653                    .dwattr $C$DW$70, DW_AT_decl_column(0x25)
    1654                    .dwattr $C$DW$70, DW_AT_TI_max_frame_size(0x06)
    1655                    .dwpsn  file "C:/ti/ccs1110/ccs/tools/compiler/ti-cgt-msp430_21.6.0.LTS/include/_defs.h",line 
    1656            
    1657                    .dwfde $C$DW$CIE, __fpclassifyf
    1658            $C$DW$71        .dwtag  DW_TAG_formal_parameter
    1659                    .dwattr $C$DW$71, DW_AT_name("f")
    1660                    .dwattr $C$DW$71, DW_AT_TI_symbol_name("f")
    1661                    .dwattr $C$DW$71, DW_AT_type(*$C$DW$T$16)
    1662                    .dwattr $C$DW$71, DW_AT_location[DW_OP_reg12]
    1663            
    1664            
    1665            ;*****************************************************************************
    1666            ;* FUNCTION NAME: __fpclassifyf                                              *
    1667            ;*                                                                           *
    1668            ;*   Regs Modified     : SP,SR,r12,r14,r15                                   *
    1669            ;*   Regs Used         : SP,SR,r12,r13,r14,r15                               *
    1670            ;*   Local Frame Size  : 0 Args + 4 Auto + 0 Save = 4 byte                   *
    1671            ;*****************************************************************************
    1672 000000       __fpclassifyf:
    1673            ;* --------------------------------------------------------------------------*
    1674                    .dwcfi  cfa_offset, 2
    1675                    .dwcfi  save_reg_to_mem, 16, -2
    1676 000000 8221          SUB.W     #4,SP                 ; [] 
    1677                    .dwcfi  cfa_offset, 6
    1678            $C$DW$72        .dwtag  DW_TAG_variable
    1679                    .dwattr $C$DW$72, DW_AT_name("f")
    1680                    .dwattr $C$DW$72, DW_AT_TI_symbol_name("f")
    1681                    .dwattr $C$DW$72, DW_AT_type(*$C$DW$T$16)
    1682                    .dwattr $C$DW$72, DW_AT_location[DW_OP_breg1 0]
    1683            
    1684 000002 4C81          MOV.W     r12,0(SP)             ; [] |397| 
         000004 0000 
    1685 000006 4D81          MOV.W     r13,2(SP)             ; [] |397| 
         000008 0002 
    1686                    .dwpsn  file "C:/ti/ccs1110/ccs/tools/compiler/ti-cgt-msp430_21.6.0.LTS/include/_defs.h",line 
    1687 00000a 412F          MOV.W     0(SP),r15             ; [] |398| 
    1688 00000c 4D0C          MOV.W     r13,r12               ; [] 
    1689 00000e 4C0E          MOV.W     r12,r14               ; [] |398| 
    1690 000010 F03E          AND.W     #32640,r14            ; [] |398| 
         000012 7F80 
    1691 000014 903E          CMP.W     #32640,r14            ; [] |398| 
         000016 7F80 
    1692 000018 200B          JNE       $C$L32                ; [] |398| 
    1693                                                      ; [] |398| 
    1694            ;* --------------------------------------------------------------------------*
    1695                    .dwpsn  file "C:/ti/ccs1110/ccs/tools/compiler/ti-cgt-msp430_21.6.0.LTS/include/_defs.h",line 
    1696 00001a F33F          AND.W     #65535,r15            ; [] |400| 
    1697 00001c F03C          AND.W     #127,r12              ; [] |400| 
         00001e 007F 
    1698 000020 930C          TST.W     r12                   ; [] |400| 
    1699 000022 2004          JNE       $C$L31                ; [] |400| 
MSP430 Assembler PC v21.6.0 Thu Jan 27 17:18:09 2022

Copyright (c) 2003-2018 Texas Instruments Incorporated
C:\Users\d_oti\AppData\Local\Temp\{7C157F18-368C-4A2C-B4B8-F2D54C4F90C9} PAGE   34

    1700                                                      ; [] |400| 
    1701            ;* --------------------------------------------------------------------------*
    1702 000024 930F          TST.W     r15                   ; [] |400| 
    1703 000026 2002          JNE       $C$L31                ; [] |400| 
    1704                                                      ; [] |400| 
    1705            ;* --------------------------------------------------------------------------*
    1706                    .dwpsn  file "C:/ti/ccs1110/ccs/tools/compiler/ti-cgt-msp430_21.6.0.LTS/include/_defs.h",line 
    1707 000028 431C          MOV.W     #1,r12                ; [] |401| 
    1708 00002a 3C17          JMP       $C$L35                ; [] |401| 
    1709                                                      ; [] |401| 
    1710            ;* --------------------------------------------------------------------------*
    1711 00002c       $C$L31:    
    1712                    .dwpsn  file "C:/ti/ccs1110/ccs/tools/compiler/ti-cgt-msp430_21.6.0.LTS/include/_defs.h",line 
    1713 00002c 432C          MOV.W     #2,r12                ; [] |402| 
    1714 00002e 3C15          JMP       $C$L35                ; [] |402| 
    1715                                                      ; [] |402| 
    1716            ;* --------------------------------------------------------------------------*
    1717 000030       $C$L32:    
    1718                    .dwpsn  file "C:/ti/ccs1110/ccs/tools/compiler/ti-cgt-msp430_21.6.0.LTS/include/_defs.h",line 
    1719            $C$DW$73        .dwtag  DW_TAG_TI_branch
    1720                    .dwattr $C$DW$73, DW_AT_low_pc(0x00)
    1721                    .dwattr $C$DW$73, DW_AT_name("__mspabi_srli_7")
    1722                    .dwattr $C$DW$73, DW_AT_TI_call
    1723            
    1724 000030 12B0          CALL      #__mspabi_srli_7      ; [] |404| 
         000032 0000!
    1725                                                      ; [] |404| 
    1726 000034 B03C          BIT.W     #255,r12              ; [] |404| 
         000036 00FF 
    1727 000038 200F          JNE       $C$L34                ; [] |404| 
    1728                                                      ; [] |404| 
    1729            ;* --------------------------------------------------------------------------*
    1730                    .dwpsn  file "C:/ti/ccs1110/ccs/tools/compiler/ti-cgt-msp430_21.6.0.LTS/include/_defs.h",line 
    1731 00003a 412E          MOV.W     0(SP),r14             ; [] |406| 
    1732 00003c 411F          MOV.W     2(SP),r15             ; [] |406| 
         00003e 0002 
    1733 000040 F33E          AND.W     #65535,r14            ; [] |406| 
    1734 000042 F03F          AND.W     #127,r15              ; [] |406| 
         000044 007F 
    1735 000046 930F          TST.W     r15                   ; [] |406| 
    1736 000048 2004          JNE       $C$L33                ; [] |406| 
    1737                                                      ; [] |406| 
    1738            ;* --------------------------------------------------------------------------*
    1739 00004a 930E          TST.W     r14                   ; [] |406| 
    1740 00004c 2002          JNE       $C$L33                ; [] |406| 
    1741                                                      ; [] |406| 
    1742            ;* --------------------------------------------------------------------------*
    1743                    .dwpsn  file "C:/ti/ccs1110/ccs/tools/compiler/ti-cgt-msp430_21.6.0.LTS/include/_defs.h",line 
    1744 00004e 430C          MOV.W     #0,r12                ; [] |407| 
    1745 000050 3C04          JMP       $C$L35                ; [] |407| 
    1746                                                      ; [] |407| 
    1747            ;* --------------------------------------------------------------------------*
    1748 000052       $C$L33:    
    1749                    .dwpsn  file "C:/ti/ccs1110/ccs/tools/compiler/ti-cgt-msp430_21.6.0.LTS/include/_defs.h",line 
    1750 000052 403C          MOV.W     #65534,r12            ; [] |408| 
MSP430 Assembler PC v21.6.0 Thu Jan 27 17:18:09 2022

Copyright (c) 2003-2018 Texas Instruments Incorporated
C:\Users\d_oti\AppData\Local\Temp\{7C157F18-368C-4A2C-B4B8-F2D54C4F90C9} PAGE   35

         000054 FFFE 
    1751 000056 3C01          JMP       $C$L35                ; [] |408| 
    1752                                                      ; [] |408| 
    1753            ;* --------------------------------------------------------------------------*
    1754 000058       $C$L34:    
    1755                    .dwpsn  file "C:/ti/ccs1110/ccs/tools/compiler/ti-cgt-msp430_21.6.0.LTS/include/_defs.h",line 
    1756 000058 433C          MOV.W     #-1,r12               ; [] |410| 
    1757            ;* --------------------------------------------------------------------------*
    1758 00005a       $C$L35:    
    1759                    .dwpsn  file "C:/ti/ccs1110/ccs/tools/compiler/ti-cgt-msp430_21.6.0.LTS/include/_defs.h",line 
    1760 00005a 5221          ADD.W     #4,SP                 ; [] 
    1761                    .dwcfi  cfa_offset, 2
    1762            $C$DW$74        .dwtag  DW_TAG_TI_branch
    1763                    .dwattr $C$DW$74, DW_AT_low_pc(0x00)
    1764                    .dwattr $C$DW$74, DW_AT_TI_return
    1765            
    1766 00005c 4130          RET       ; [] 
    1767                    ; [] 
    1768                    .dwattr $C$DW$70, DW_AT_TI_end_file("C:/ti/ccs1110/ccs/tools/compiler/ti-cgt-msp430_21.6.0.LTS
    1769                    .dwattr $C$DW$70, DW_AT_TI_end_line(0x19b)
    1770                    .dwattr $C$DW$70, DW_AT_TI_end_column(0x01)
    1771                    .dwendentry
    1772                    .dwendtag $C$DW$70
    1773            
    1774 000000               .sect   ".text:__fpclassify"
    1775                    .clink
    1776                    .global __fpclassify
    1777            
    1778            $C$DW$75        .dwtag  DW_TAG_subprogram
    1779                    .dwattr $C$DW$75, DW_AT_name("__fpclassify")
    1780                    .dwattr $C$DW$75, DW_AT_low_pc(__fpclassify)
    1781                    .dwattr $C$DW$75, DW_AT_high_pc(0x00)
    1782                    .dwattr $C$DW$75, DW_AT_TI_symbol_name("__fpclassify")
    1783                    .dwattr $C$DW$75, DW_AT_external
    1784                    .dwattr $C$DW$75, DW_AT_type(*$C$DW$T$10)
    1785                    .dwattr $C$DW$75, DW_AT_TI_begin_file("C:/ti/ccs1110/ccs/tools/compiler/ti-cgt-msp430_21.6.0.L
    1786                    .dwattr $C$DW$75, DW_AT_TI_begin_line(0x19d)
    1787                    .dwattr $C$DW$75, DW_AT_TI_begin_column(0x25)
    1788                    .dwattr $C$DW$75, DW_AT_decl_file("C:/ti/ccs1110/ccs/tools/compiler/ti-cgt-msp430_21.6.0.LTS/i
    1789                    .dwattr $C$DW$75, DW_AT_decl_line(0x19d)
    1790                    .dwattr $C$DW$75, DW_AT_decl_column(0x25)
    1791                    .dwattr $C$DW$75, DW_AT_TI_max_frame_size(0x10)
    1792                    .dwpsn  file "C:/ti/ccs1110/ccs/tools/compiler/ti-cgt-msp430_21.6.0.LTS/include/_defs.h",line 
    1793            
    1794                    .dwfde $C$DW$CIE, __fpclassify
    1795            $C$DW$76        .dwtag  DW_TAG_formal_parameter
    1796                    .dwattr $C$DW$76, DW_AT_name("d")
    1797                    .dwattr $C$DW$76, DW_AT_TI_symbol_name("d")
    1798                    .dwattr $C$DW$76, DW_AT_type(*$C$DW$T$17)
    1799                    .dwattr $C$DW$76, DW_AT_location[DW_OP_reg12]
    1800            
    1801            
    1802            ;*****************************************************************************
    1803            ;* FUNCTION NAME: __fpclassify                                               *
    1804            ;*                                                                           *
MSP430 Assembler PC v21.6.0 Thu Jan 27 17:18:09 2022

Copyright (c) 2003-2018 Texas Instruments Incorporated
C:\Users\d_oti\AppData\Local\Temp\{7C157F18-368C-4A2C-B4B8-F2D54C4F90C9} PAGE   36

    1805            ;*   Regs Modified     : SP,SR,r8,r9,r10,r11,r12,r13,r14,r15                 *
    1806            ;*   Regs Used         : SP,SR,r8,r9,r10,r11,r12,r13,r14,r15                 *
    1807            ;*   Local Frame Size  : 0 Args + 8 Auto + 6 Save = 14 byte                  *
    1808            ;*****************************************************************************
    1809 000000       __fpclassify:
    1810            ;* --------------------------------------------------------------------------*
    1811                    .dwcfi  cfa_offset, 2
    1812                    .dwcfi  save_reg_to_mem, 16, -2
    1813 000000 120A          PUSH.W    r10                   ; [] 
    1814                    .dwcfi  cfa_offset, 4
    1815                    .dwcfi  save_reg_to_mem, 10, -4
    1816 000002 1209          PUSH.W    r9                    ; [] 
    1817                    .dwcfi  cfa_offset, 6
    1818                    .dwcfi  save_reg_to_mem, 9, -6
    1819 000004 1208          PUSH.W    r8                    ; [] 
    1820                    .dwcfi  cfa_offset, 8
    1821                    .dwcfi  save_reg_to_mem, 8, -8
    1822 000006 8231          SUB.W     #8,SP                 ; [] 
    1823                    .dwcfi  cfa_offset, 16
    1824            $C$DW$77        .dwtag  DW_TAG_variable
    1825                    .dwattr $C$DW$77, DW_AT_name("d")
    1826                    .dwattr $C$DW$77, DW_AT_TI_symbol_name("d")
    1827                    .dwattr $C$DW$77, DW_AT_type(*$C$DW$T$17)
    1828                    .dwattr $C$DW$77, DW_AT_location[DW_OP_breg1 0]
    1829            
    1830 000008 4C81          MOV.W     r12,0(SP)             ; [] |414| 
         00000a 0000 
    1831 00000c 4D81          MOV.W     r13,2(SP)             ; [] |414| 
         00000e 0002 
    1832 000010 4E81          MOV.W     r14,4(SP)             ; [] |414| 
         000012 0004 
    1833 000014 4F81          MOV.W     r15,6(SP)             ; [] |414| 
         000016 0006 
    1834                    .dwpsn  file "C:/ti/ccs1110/ccs/tools/compiler/ti-cgt-msp430_21.6.0.LTS/include/_defs.h",line 
    1835 000018 4128          MOV.W     0(SP),r8              ; [] |415| 
    1836 00001a 4119          MOV.W     2(SP),r9              ; [] |415| 
         00001c 0002 
    1837 00001e 411A          MOV.W     4(SP),r10             ; [] |415| 
         000020 0004 
    1838 000022 4F0E          MOV.W     r15,r14               ; [] |415| 
    1839 000024 F03E          AND.W     #32752,r14            ; [] |415| 
         000026 7FF0 
    1840 000028 903E          CMP.W     #32752,r14            ; [] |415| 
         00002a 7FF0 
    1841 00002c 2012          JNE       $C$L37                ; [] |415| 
    1842                                                      ; [] |415| 
    1843            ;* --------------------------------------------------------------------------*
    1844                    .dwpsn  file "C:/ti/ccs1110/ccs/tools/compiler/ti-cgt-msp430_21.6.0.LTS/include/_defs.h",line 
    1845 00002e 4F0B          MOV.W     r15,r11               ; [] 
    1846 000030 F338          AND.W     #65535,r8             ; [] |417| 
    1847 000032 F339          AND.W     #65535,r9             ; [] |417| 
    1848 000034 F33A          AND.W     #65535,r10            ; [] |417| 
    1849 000036 F03B          AND.W     #15,r11               ; [] |417| 
         000038 000F 
    1850 00003a 930B          TST.W     r11                   ; [] |417| 
MSP430 Assembler PC v21.6.0 Thu Jan 27 17:18:09 2022

Copyright (c) 2003-2018 Texas Instruments Incorporated
C:\Users\d_oti\AppData\Local\Temp\{7C157F18-368C-4A2C-B4B8-F2D54C4F90C9} PAGE   37

    1851 00003c 2008          JNE       $C$L36                ; [] |417| 
    1852                                                      ; [] |417| 
    1853            ;* --------------------------------------------------------------------------*
    1854 00003e 930A          TST.W     r10                   ; [] |417| 
    1855 000040 2006          JNE       $C$L36                ; [] |417| 
    1856                                                      ; [] |417| 
    1857            ;* --------------------------------------------------------------------------*
    1858 000042 9309          TST.W     r9                    ; [] |417| 
    1859 000044 2004          JNE       $C$L36                ; [] |417| 
    1860                                                      ; [] |417| 
    1861            ;* --------------------------------------------------------------------------*
    1862 000046 9308          TST.W     r8                    ; [] |417| 
    1863 000048 2002          JNE       $C$L36                ; [] |417| 
    1864                                                      ; [] |417| 
    1865            ;* --------------------------------------------------------------------------*
    1866                    .dwpsn  file "C:/ti/ccs1110/ccs/tools/compiler/ti-cgt-msp430_21.6.0.LTS/include/_defs.h",line 
    1867 00004a 431C          MOV.W     #1,r12                ; [] |418| 
    1868 00004c 3C2E          JMP       $C$L40                ; [] |418| 
    1869                                                      ; [] |418| 
    1870            ;* --------------------------------------------------------------------------*
    1871 00004e       $C$L36:    
    1872                    .dwpsn  file "C:/ti/ccs1110/ccs/tools/compiler/ti-cgt-msp430_21.6.0.LTS/include/_defs.h",line 
    1873 00004e 432C          MOV.W     #2,r12                ; [] |419| 
    1874 000050 3C2C          JMP       $C$L40                ; [] |419| 
    1875                                                      ; [] |419| 
    1876            ;* --------------------------------------------------------------------------*
    1877 000052       $C$L37:    
    1878                    .dwpsn  file "C:/ti/ccs1110/ccs/tools/compiler/ti-cgt-msp430_21.6.0.LTS/include/_defs.h",line 
    1879 000052 4F0B          MOV.W     r15,r11               ; [] 
    1880 000054 403C          MOV.W     #52,r12               ; [] |421| 
         000056 0034 
    1881            $C$DW$78        .dwtag  DW_TAG_TI_branch
    1882                    .dwattr $C$DW$78, DW_AT_low_pc(0x00)
    1883                    .dwattr $C$DW$78, DW_AT_name("__mspabi_srlll")
    1884                    .dwattr $C$DW$78, DW_AT_TI_call
    1885            
    1886 000058 12B0          CALL      #__mspabi_srlll       ; [] |421| 
         00005a 0000!
    1887                                                      ; [] |421| 
    1888 00005c F03C          AND.W     #2047,r12             ; [] |421| 
         00005e 07FF 
    1889 000060 F30D          AND.W     #0,r13                ; [] |421| 
    1890 000062 F30E          AND.W     #0,r14                ; [] |421| 
    1891 000064 F30F          AND.W     #0,r15                ; [] |421| 
    1892 000066 930F          TST.W     r15                   ; [] |421| 
    1893 000068 201F          JNE       $C$L39                ; [] |421| 
    1894                                                      ; [] |421| 
    1895            ;* --------------------------------------------------------------------------*
    1896 00006a 930E          TST.W     r14                   ; [] |421| 
    1897 00006c 201D          JNE       $C$L39                ; [] |421| 
    1898                                                      ; [] |421| 
    1899            ;* --------------------------------------------------------------------------*
    1900 00006e 930D          TST.W     r13                   ; [] |421| 
    1901 000070 201B          JNE       $C$L39                ; [] |421| 
    1902                                                      ; [] |421| 
MSP430 Assembler PC v21.6.0 Thu Jan 27 17:18:09 2022

Copyright (c) 2003-2018 Texas Instruments Incorporated
C:\Users\d_oti\AppData\Local\Temp\{7C157F18-368C-4A2C-B4B8-F2D54C4F90C9} PAGE   38

    1903            ;* --------------------------------------------------------------------------*
    1904 000072 930C          TST.W     r12                   ; [] |421| 
    1905 000074 2019          JNE       $C$L39                ; [] |421| 
    1906                                                      ; [] |421| 
    1907            ;* --------------------------------------------------------------------------*
    1908                    .dwpsn  file "C:/ti/ccs1110/ccs/tools/compiler/ti-cgt-msp430_21.6.0.LTS/include/_defs.h",line 
    1909 000076 412C          MOV.W     0(SP),r12             ; [] |423| 
    1910 000078 411D          MOV.W     2(SP),r13             ; [] |423| 
         00007a 0002 
    1911 00007c 411E          MOV.W     4(SP),r14             ; [] |423| 
         00007e 0004 
    1912 000080 411F          MOV.W     6(SP),r15             ; [] |423| 
         000082 0006 
    1913 000084 F33C          AND.W     #65535,r12            ; [] |423| 
    1914 000086 F33D          AND.W     #65535,r13            ; [] |423| 
    1915 000088 F33E          AND.W     #65535,r14            ; [] |423| 
    1916 00008a F03F          AND.W     #15,r15               ; [] |423| 
         00008c 000F 
    1917 00008e 930F          TST.W     r15                   ; [] |423| 
    1918 000090 2008          JNE       $C$L38                ; [] |423| 
    1919                                                      ; [] |423| 
    1920            ;* --------------------------------------------------------------------------*
    1921 000092 930E          TST.W     r14                   ; [] |423| 
    1922 000094 2006          JNE       $C$L38                ; [] |423| 
    1923                                                      ; [] |423| 
    1924            ;* --------------------------------------------------------------------------*
    1925 000096 930D          TST.W     r13                   ; [] |423| 
    1926 000098 2004          JNE       $C$L38                ; [] |423| 
    1927                                                      ; [] |423| 
    1928            ;* --------------------------------------------------------------------------*
    1929 00009a 930C          TST.W     r12                   ; [] |423| 
    1930 00009c 2002          JNE       $C$L38                ; [] |423| 
    1931                                                      ; [] |423| 
    1932            ;* --------------------------------------------------------------------------*
    1933                    .dwpsn  file "C:/ti/ccs1110/ccs/tools/compiler/ti-cgt-msp430_21.6.0.LTS/include/_defs.h",line 
    1934 00009e 430C          MOV.W     #0,r12                ; [] |424| 
    1935 0000a0 3C04          JMP       $C$L40                ; [] |424| 
    1936                                                      ; [] |424| 
    1937            ;* --------------------------------------------------------------------------*
    1938 0000a2       $C$L38:    
    1939                    .dwpsn  file "C:/ti/ccs1110/ccs/tools/compiler/ti-cgt-msp430_21.6.0.LTS/include/_defs.h",line 
    1940 0000a2 403C          MOV.W     #65534,r12            ; [] |425| 
         0000a4 FFFE 
    1941 0000a6 3C01          JMP       $C$L40                ; [] |425| 
    1942                                                      ; [] |425| 
    1943            ;* --------------------------------------------------------------------------*
    1944 0000a8       $C$L39:    
    1945                    .dwpsn  file "C:/ti/ccs1110/ccs/tools/compiler/ti-cgt-msp430_21.6.0.LTS/include/_defs.h",line 
    1946 0000a8 433C          MOV.W     #-1,r12               ; [] |427| 
    1947            ;* --------------------------------------------------------------------------*
    1948 0000aa       $C$L40:    
    1949                    .dwpsn  file "C:/ti/ccs1110/ccs/tools/compiler/ti-cgt-msp430_21.6.0.LTS/include/_defs.h",line 
    1950 0000aa 5231          ADD.W     #8,SP                 ; [] 
    1951                    .dwcfi  cfa_offset, 8
    1952            $C$DW$79        .dwtag  DW_TAG_TI_branch
MSP430 Assembler PC v21.6.0 Thu Jan 27 17:18:09 2022

Copyright (c) 2003-2018 Texas Instruments Incorporated
C:\Users\d_oti\AppData\Local\Temp\{7C157F18-368C-4A2C-B4B8-F2D54C4F90C9} PAGE   39

    1953                    .dwattr $C$DW$79, DW_AT_low_pc(0x00)
    1954                    .dwattr $C$DW$79, DW_AT_TI_return
    1955            
    1956 0000ac 4030          BR        #__mspabi_func_epilog_3 ; [] 
         0000ae 0000!
    1957                    ; [] 
    1958                    .dwattr $C$DW$75, DW_AT_TI_end_file("C:/ti/ccs1110/ccs/tools/compiler/ti-cgt-msp430_21.6.0.LTS
    1959                    .dwattr $C$DW$75, DW_AT_TI_end_line(0x1ac)
    1960                    .dwattr $C$DW$75, DW_AT_TI_end_column(0x01)
    1961                    .dwendentry
    1962                    .dwendtag $C$DW$75
    1963            
    1964 000000               .sect   ".text:__fpclassifyl"
    1965                    .clink
    1966                    .global __fpclassifyl
    1967            
    1968            $C$DW$80        .dwtag  DW_TAG_subprogram
    1969                    .dwattr $C$DW$80, DW_AT_name("__fpclassifyl")
    1970                    .dwattr $C$DW$80, DW_AT_low_pc(__fpclassifyl)
    1971                    .dwattr $C$DW$80, DW_AT_high_pc(0x00)
    1972                    .dwattr $C$DW$80, DW_AT_TI_symbol_name("__fpclassifyl")
    1973                    .dwattr $C$DW$80, DW_AT_external
    1974                    .dwattr $C$DW$80, DW_AT_type(*$C$DW$T$10)
    1975                    .dwattr $C$DW$80, DW_AT_TI_begin_file("C:/ti/ccs1110/ccs/tools/compiler/ti-cgt-msp430_21.6.0.L
    1976                    .dwattr $C$DW$80, DW_AT_TI_begin_line(0x1ae)
    1977                    .dwattr $C$DW$80, DW_AT_TI_begin_column(0x25)
    1978                    .dwattr $C$DW$80, DW_AT_decl_file("C:/ti/ccs1110/ccs/tools/compiler/ti-cgt-msp430_21.6.0.LTS/i
    1979                    .dwattr $C$DW$80, DW_AT_decl_line(0x1ae)
    1980                    .dwattr $C$DW$80, DW_AT_decl_column(0x25)
    1981                    .dwattr $C$DW$80, DW_AT_TI_max_frame_size(0x10)
    1982                    .dwpsn  file "C:/ti/ccs1110/ccs/tools/compiler/ti-cgt-msp430_21.6.0.LTS/include/_defs.h",line 
    1983            
    1984                    .dwfde $C$DW$CIE, __fpclassifyl
    1985            $C$DW$81        .dwtag  DW_TAG_formal_parameter
    1986                    .dwattr $C$DW$81, DW_AT_name("e")
    1987                    .dwattr $C$DW$81, DW_AT_TI_symbol_name("e")
    1988                    .dwattr $C$DW$81, DW_AT_type(*$C$DW$T$18)
    1989                    .dwattr $C$DW$81, DW_AT_location[DW_OP_reg12]
    1990            
    1991            
    1992            ;*****************************************************************************
    1993            ;* FUNCTION NAME: __fpclassifyl                                              *
    1994            ;*                                                                           *
    1995            ;*   Regs Modified     : SP,SR,r8,r9,r10,r11,r12,r13,r14,r15                 *
    1996            ;*   Regs Used         : SP,SR,r8,r9,r10,r11,r12,r13,r14,r15                 *
    1997            ;*   Local Frame Size  : 0 Args + 8 Auto + 6 Save = 14 byte                  *
    1998            ;*****************************************************************************
    1999 000000       __fpclassifyl:
    2000            ;* --------------------------------------------------------------------------*
    2001                    .dwcfi  cfa_offset, 2
    2002                    .dwcfi  save_reg_to_mem, 16, -2
    2003 000000 120A          PUSH.W    r10                   ; [] 
    2004                    .dwcfi  cfa_offset, 4
    2005                    .dwcfi  save_reg_to_mem, 10, -4
    2006 000002 1209          PUSH.W    r9                    ; [] 
MSP430 Assembler PC v21.6.0 Thu Jan 27 17:18:09 2022

Copyright (c) 2003-2018 Texas Instruments Incorporated
C:\Users\d_oti\AppData\Local\Temp\{7C157F18-368C-4A2C-B4B8-F2D54C4F90C9} PAGE   40

    2007                    .dwcfi  cfa_offset, 6
    2008                    .dwcfi  save_reg_to_mem, 9, -6
    2009 000004 1208          PUSH.W    r8                    ; [] 
    2010                    .dwcfi  cfa_offset, 8
    2011                    .dwcfi  save_reg_to_mem, 8, -8
    2012 000006 8231          SUB.W     #8,SP                 ; [] 
    2013                    .dwcfi  cfa_offset, 16
    2014            $C$DW$82        .dwtag  DW_TAG_variable
    2015                    .dwattr $C$DW$82, DW_AT_name("e")
    2016                    .dwattr $C$DW$82, DW_AT_TI_symbol_name("e")
    2017                    .dwattr $C$DW$82, DW_AT_type(*$C$DW$T$18)
    2018                    .dwattr $C$DW$82, DW_AT_location[DW_OP_breg1 0]
    2019            
    2020 000008 4C81          MOV.W     r12,0(SP)             ; [] |431| 
         00000a 0000 
    2021 00000c 4D81          MOV.W     r13,2(SP)             ; [] |431| 
         00000e 0002 
    2022 000010 4E81          MOV.W     r14,4(SP)             ; [] |431| 
         000012 0004 
    2023 000014 4F81          MOV.W     r15,6(SP)             ; [] |431| 
         000016 0006 
    2024                    .dwpsn  file "C:/ti/ccs1110/ccs/tools/compiler/ti-cgt-msp430_21.6.0.LTS/include/_defs.h",line 
    2025 000018 4128          MOV.W     0(SP),r8              ; [] |432| 
    2026 00001a 4119          MOV.W     2(SP),r9              ; [] |432| 
         00001c 0002 
    2027 00001e 411A          MOV.W     4(SP),r10             ; [] |432| 
         000020 0004 
    2028 000022 4F0E          MOV.W     r15,r14               ; [] |432| 
    2029 000024 F03E          AND.W     #32752,r14            ; [] |432| 
         000026 7FF0 
    2030 000028 903E          CMP.W     #32752,r14            ; [] |432| 
         00002a 7FF0 
    2031 00002c 2012          JNE       $C$L42                ; [] |432| 
    2032                                                      ; [] |432| 
    2033            ;* --------------------------------------------------------------------------*
    2034                    .dwpsn  file "C:/ti/ccs1110/ccs/tools/compiler/ti-cgt-msp430_21.6.0.LTS/include/_defs.h",line 
    2035 00002e 4F0B          MOV.W     r15,r11               ; [] 
    2036 000030 F338          AND.W     #65535,r8             ; [] |434| 
    2037 000032 F339          AND.W     #65535,r9             ; [] |434| 
    2038 000034 F33A          AND.W     #65535,r10            ; [] |434| 
    2039 000036 F03B          AND.W     #15,r11               ; [] |434| 
         000038 000F 
    2040 00003a 930B          TST.W     r11                   ; [] |434| 
    2041 00003c 2008          JNE       $C$L41                ; [] |434| 
    2042                                                      ; [] |434| 
    2043            ;* --------------------------------------------------------------------------*
    2044 00003e 930A          TST.W     r10                   ; [] |434| 
    2045 000040 2006          JNE       $C$L41                ; [] |434| 
    2046                                                      ; [] |434| 
    2047            ;* --------------------------------------------------------------------------*
    2048 000042 9309          TST.W     r9                    ; [] |434| 
    2049 000044 2004          JNE       $C$L41                ; [] |434| 
    2050                                                      ; [] |434| 
    2051            ;* --------------------------------------------------------------------------*
    2052 000046 9308          TST.W     r8                    ; [] |434| 
MSP430 Assembler PC v21.6.0 Thu Jan 27 17:18:09 2022

Copyright (c) 2003-2018 Texas Instruments Incorporated
C:\Users\d_oti\AppData\Local\Temp\{7C157F18-368C-4A2C-B4B8-F2D54C4F90C9} PAGE   41

    2053 000048 2002          JNE       $C$L41                ; [] |434| 
    2054                                                      ; [] |434| 
    2055            ;* --------------------------------------------------------------------------*
    2056                    .dwpsn  file "C:/ti/ccs1110/ccs/tools/compiler/ti-cgt-msp430_21.6.0.LTS/include/_defs.h",line 
    2057 00004a 431C          MOV.W     #1,r12                ; [] |435| 
    2058 00004c 3C2E          JMP       $C$L45                ; [] |435| 
    2059                                                      ; [] |435| 
    2060            ;* --------------------------------------------------------------------------*
    2061 00004e       $C$L41:    
    2062                    .dwpsn  file "C:/ti/ccs1110/ccs/tools/compiler/ti-cgt-msp430_21.6.0.LTS/include/_defs.h",line 
    2063 00004e 432C          MOV.W     #2,r12                ; [] |436| 
    2064 000050 3C2C          JMP       $C$L45                ; [] |436| 
    2065                                                      ; [] |436| 
    2066            ;* --------------------------------------------------------------------------*
    2067 000052       $C$L42:    
    2068                    .dwpsn  file "C:/ti/ccs1110/ccs/tools/compiler/ti-cgt-msp430_21.6.0.LTS/include/_defs.h",line 
    2069 000052 4F0B          MOV.W     r15,r11               ; [] 
    2070 000054 403C          MOV.W     #52,r12               ; [] |438| 
         000056 0034 
    2071            $C$DW$83        .dwtag  DW_TAG_TI_branch
    2072                    .dwattr $C$DW$83, DW_AT_low_pc(0x00)
    2073                    .dwattr $C$DW$83, DW_AT_name("__mspabi_srlll")
    2074                    .dwattr $C$DW$83, DW_AT_TI_call
    2075            
    2076 000058 12B0          CALL      #__mspabi_srlll       ; [] |438| 
         00005a 0000!
    2077                                                      ; [] |438| 
    2078 00005c F03C          AND.W     #2047,r12             ; [] |438| 
         00005e 07FF 
    2079 000060 F30D          AND.W     #0,r13                ; [] |438| 
    2080 000062 F30E          AND.W     #0,r14                ; [] |438| 
    2081 000064 F30F          AND.W     #0,r15                ; [] |438| 
    2082 000066 930F          TST.W     r15                   ; [] |438| 
    2083 000068 201F          JNE       $C$L44                ; [] |438| 
    2084                                                      ; [] |438| 
    2085            ;* --------------------------------------------------------------------------*
    2086 00006a 930E          TST.W     r14                   ; [] |438| 
    2087 00006c 201D          JNE       $C$L44                ; [] |438| 
    2088                                                      ; [] |438| 
    2089            ;* --------------------------------------------------------------------------*
    2090 00006e 930D          TST.W     r13                   ; [] |438| 
    2091 000070 201B          JNE       $C$L44                ; [] |438| 
    2092                                                      ; [] |438| 
    2093            ;* --------------------------------------------------------------------------*
    2094 000072 930C          TST.W     r12                   ; [] |438| 
    2095 000074 2019          JNE       $C$L44                ; [] |438| 
    2096                                                      ; [] |438| 
    2097            ;* --------------------------------------------------------------------------*
    2098                    .dwpsn  file "C:/ti/ccs1110/ccs/tools/compiler/ti-cgt-msp430_21.6.0.LTS/include/_defs.h",line 
    2099 000076 412C          MOV.W     0(SP),r12             ; [] |440| 
    2100 000078 411D          MOV.W     2(SP),r13             ; [] |440| 
         00007a 0002 
    2101 00007c 411E          MOV.W     4(SP),r14             ; [] |440| 
         00007e 0004 
    2102 000080 411F          MOV.W     6(SP),r15             ; [] |440| 
MSP430 Assembler PC v21.6.0 Thu Jan 27 17:18:09 2022

Copyright (c) 2003-2018 Texas Instruments Incorporated
C:\Users\d_oti\AppData\Local\Temp\{7C157F18-368C-4A2C-B4B8-F2D54C4F90C9} PAGE   42

         000082 0006 
    2103 000084 F33C          AND.W     #65535,r12            ; [] |440| 
    2104 000086 F33D          AND.W     #65535,r13            ; [] |440| 
    2105 000088 F33E          AND.W     #65535,r14            ; [] |440| 
    2106 00008a F03F          AND.W     #15,r15               ; [] |440| 
         00008c 000F 
    2107 00008e 930F          TST.W     r15                   ; [] |440| 
    2108 000090 2008          JNE       $C$L43                ; [] |440| 
    2109                                                      ; [] |440| 
    2110            ;* --------------------------------------------------------------------------*
    2111 000092 930E          TST.W     r14                   ; [] |440| 
    2112 000094 2006          JNE       $C$L43                ; [] |440| 
    2113                                                      ; [] |440| 
    2114            ;* --------------------------------------------------------------------------*
    2115 000096 930D          TST.W     r13                   ; [] |440| 
    2116 000098 2004          JNE       $C$L43                ; [] |440| 
    2117                                                      ; [] |440| 
    2118            ;* --------------------------------------------------------------------------*
    2119 00009a 930C          TST.W     r12                   ; [] |440| 
    2120 00009c 2002          JNE       $C$L43                ; [] |440| 
    2121                                                      ; [] |440| 
    2122            ;* --------------------------------------------------------------------------*
    2123                    .dwpsn  file "C:/ti/ccs1110/ccs/tools/compiler/ti-cgt-msp430_21.6.0.LTS/include/_defs.h",line 
    2124 00009e 430C          MOV.W     #0,r12                ; [] |441| 
    2125 0000a0 3C04          JMP       $C$L45                ; [] |441| 
    2126                                                      ; [] |441| 
    2127            ;* --------------------------------------------------------------------------*
    2128 0000a2       $C$L43:    
    2129                    .dwpsn  file "C:/ti/ccs1110/ccs/tools/compiler/ti-cgt-msp430_21.6.0.LTS/include/_defs.h",line 
    2130 0000a2 403C          MOV.W     #65534,r12            ; [] |442| 
         0000a4 FFFE 
    2131 0000a6 3C01          JMP       $C$L45                ; [] |442| 
    2132                                                      ; [] |442| 
    2133            ;* --------------------------------------------------------------------------*
    2134 0000a8       $C$L44:    
    2135                    .dwpsn  file "C:/ti/ccs1110/ccs/tools/compiler/ti-cgt-msp430_21.6.0.LTS/include/_defs.h",line 
    2136 0000a8 433C          MOV.W     #-1,r12               ; [] |444| 
    2137            ;* --------------------------------------------------------------------------*
    2138 0000aa       $C$L45:    
    2139                    .dwpsn  file "C:/ti/ccs1110/ccs/tools/compiler/ti-cgt-msp430_21.6.0.LTS/include/_defs.h",line 
    2140 0000aa 5231          ADD.W     #8,SP                 ; [] 
    2141                    .dwcfi  cfa_offset, 8
    2142            $C$DW$84        .dwtag  DW_TAG_TI_branch
    2143                    .dwattr $C$DW$84, DW_AT_low_pc(0x00)
    2144                    .dwattr $C$DW$84, DW_AT_TI_return
    2145            
    2146 0000ac 4030          BR        #__mspabi_func_epilog_3 ; [] 
         0000ae 0000!
    2147                    ; [] 
    2148                    .dwattr $C$DW$80, DW_AT_TI_end_file("C:/ti/ccs1110/ccs/tools/compiler/ti-cgt-msp430_21.6.0.LTS
    2149                    .dwattr $C$DW$80, DW_AT_TI_end_line(0x1bd)
    2150                    .dwattr $C$DW$80, DW_AT_TI_end_column(0x01)
    2151                    .dwendentry
    2152                    .dwendtag $C$DW$80
    2153            
MSP430 Assembler PC v21.6.0 Thu Jan 27 17:18:09 2022

Copyright (c) 2003-2018 Texas Instruments Incorporated
C:\Users\d_oti\AppData\Local\Temp\{7C157F18-368C-4A2C-B4B8-F2D54C4F90C9} PAGE   43

    2154 000000               .sect   ".text:main"
    2155                    .clink
    2156                    .global main
    2157            
    2158            $C$DW$85        .dwtag  DW_TAG_subprogram
    2159                    .dwattr $C$DW$85, DW_AT_name("main")
    2160                    .dwattr $C$DW$85, DW_AT_low_pc(main)
    2161                    .dwattr $C$DW$85, DW_AT_high_pc(0x00)
    2162                    .dwattr $C$DW$85, DW_AT_TI_symbol_name("main")
    2163                    .dwattr $C$DW$85, DW_AT_external
    2164                    .dwattr $C$DW$85, DW_AT_type(*$C$DW$T$10)
    2165                    .dwattr $C$DW$85, DW_AT_TI_begin_file("../Dot_Product.c")
    2166                    .dwattr $C$DW$85, DW_AT_TI_begin_line(0x13)
    2167                    .dwattr $C$DW$85, DW_AT_TI_begin_column(0x05)
    2168                    .dwattr $C$DW$85, DW_AT_decl_file("../Dot_Product.c")
    2169                    .dwattr $C$DW$85, DW_AT_decl_line(0x13)
    2170                    .dwattr $C$DW$85, DW_AT_decl_column(0x05)
    2171                    .dwattr $C$DW$85, DW_AT_TI_max_frame_size(0x30)
    2172                    .dwpsn  file "../Dot_Product.c",line 20,column 1,is_stmt,address main,isa 0
    2173            
    2174                    .dwfde $C$DW$CIE, main
    2175            
    2176            ;*****************************************************************************
    2177            ;* FUNCTION NAME: main                                                       *
    2178            ;*                                                                           *
    2179            ;*   Regs Modified     : SP,SR,r11,r12,r13,r14,r15                           *
    2180            ;*   Regs Used         : SP,SR,r11,r12,r13,r14,r15                           *
    2181            ;*   Local Frame Size  : 4 Args + 42 Auto + 0 Save = 46 byte                 *
    2182            ;*****************************************************************************
    2183 000000       main:
    2184            ;* --------------------------------------------------------------------------*
    2185                    .dwcfi  cfa_offset, 2
    2186                    .dwcfi  save_reg_to_mem, 16, -2
    2187 000000 8031          SUB.W     #46,SP                ; [] 
         000002 002E 
    2188                    .dwcfi  cfa_offset, 48
    2189            $C$DW$86        .dwtag  DW_TAG_variable
    2190                    .dwattr $C$DW$86, DW_AT_name("sums")
    2191                    .dwattr $C$DW$86, DW_AT_TI_symbol_name("sums")
    2192                    .dwattr $C$DW$86, DW_AT_type(*$C$DW$T$53)
    2193                    .dwattr $C$DW$86, DW_AT_location[DW_OP_breg1 4]
    2194            
    2195            $C$DW$87        .dwtag  DW_TAG_variable
    2196                    .dwattr $C$DW$87, DW_AT_name("A")
    2197                    .dwattr $C$DW$87, DW_AT_TI_symbol_name("A")
    2198                    .dwattr $C$DW$87, DW_AT_type(*$C$DW$T$52)
    2199                    .dwattr $C$DW$87, DW_AT_location[DW_OP_breg1 24]
    2200            
    2201            $C$DW$88        .dwtag  DW_TAG_variable
    2202                    .dwattr $C$DW$88, DW_AT_name("B")
    2203                    .dwattr $C$DW$88, DW_AT_TI_symbol_name("B")
    2204                    .dwattr $C$DW$88, DW_AT_type(*$C$DW$T$52)
    2205                    .dwattr $C$DW$88, DW_AT_location[DW_OP_breg1 32]
    2206            
    2207            $C$DW$89        .dwtag  DW_TAG_variable
MSP430 Assembler PC v21.6.0 Thu Jan 27 17:18:09 2022

Copyright (c) 2003-2018 Texas Instruments Incorporated
C:\Users\d_oti\AppData\Local\Temp\{7C157F18-368C-4A2C-B4B8-F2D54C4F90C9} PAGE   44

    2208                    .dwattr $C$DW$89, DW_AT_name("i")
    2209                    .dwattr $C$DW$89, DW_AT_TI_symbol_name("i")
    2210                    .dwattr $C$DW$89, DW_AT_type(*$C$DW$T$10)
    2211                    .dwattr $C$DW$89, DW_AT_location[DW_OP_breg1 40]
    2212            
    2213            $C$DW$90        .dwtag  DW_TAG_variable
    2214                    .dwattr $C$DW$90, DW_AT_name("dotresult")
    2215                    .dwattr $C$DW$90, DW_AT_TI_symbol_name("dotresult")
    2216                    .dwattr $C$DW$90, DW_AT_type(*$C$DW$T$10)
    2217                    .dwattr $C$DW$90, DW_AT_location[DW_OP_breg1 42]
    2218            
    2219            $C$DW$91        .dwtag  DW_TAG_variable
    2220                    .dwattr $C$DW$91, DW_AT_name("name1")
    2221                    .dwattr $C$DW$91, DW_AT_TI_symbol_name("name1")
    2222                    .dwattr $C$DW$91, DW_AT_type(*$C$DW$T$6)
    2223                    .dwattr $C$DW$91, DW_AT_location[DW_OP_breg1 44]
    2224            
    2225            $C$DW$92        .dwtag  DW_TAG_variable
    2226                    .dwattr $C$DW$92, DW_AT_name("name2")
    2227                    .dwattr $C$DW$92, DW_AT_TI_symbol_name("name2")
    2228                    .dwattr $C$DW$92, DW_AT_type(*$C$DW$T$6)
    2229                    .dwattr $C$DW$92, DW_AT_location[DW_OP_breg1 45]
    2230            
    2231                    .dwpsn  file "../Dot_Product.c",line 21,column 2,is_stmt,isa 0
    2232 000004 40B2          MOV.W     #23168,&WDTCTL+0      ; [] |21| 
         000006 5A80 
         000008 0000!
    2233                    .dwpsn  file "../Dot_Product.c",line 23,column 6,is_stmt,isa 0
    2234 00000a 4291          MOV.W     &$P$T0$1+0,24(SP)     ; [] |23| 
         00000c 0000!
         00000e 0018 
    2235 000010 4291          MOV.W     &$P$T0$1+2,26(SP)     ; [] |23| 
         000012 0002!
         000014 001A 
    2236 000016 4291          MOV.W     &$P$T0$1+4,28(SP)     ; [] |23| 
         000018 0004!
         00001a 001C 
    2237 00001c 4291          MOV.W     &$P$T0$1+6,30(SP)     ; [] |23| 
         00001e 0006!
         000020 001E 
    2238                    .dwpsn  file "../Dot_Product.c",line 24,column 6,is_stmt,isa 0
    2239 000022 4291          MOV.W     &$P$T1$2+0,32(SP)     ; [] |24| 
         000024 0000!
         000026 0020 
    2240 000028 4291          MOV.W     &$P$T1$2+2,34(SP)     ; [] |24| 
         00002a 0002!
         00002c 0022 
    2241 00002e 4291          MOV.W     &$P$T1$2+4,36(SP)     ; [] |24| 
         000030 0004!
         000032 0024 
    2242 000034 4291          MOV.W     &$P$T1$2+6,38(SP)     ; [] |24| 
         000036 0006!
         000038 0026 
    2243                    .dwpsn  file "../Dot_Product.c",line 25,column 13,is_stmt,isa 0
    2244 00003a 40F1          MOV.B     #65,44(SP)            ; [] |25| 
MSP430 Assembler PC v21.6.0 Thu Jan 27 17:18:09 2022

Copyright (c) 2003-2018 Texas Instruments Incorporated
C:\Users\d_oti\AppData\Local\Temp\{7C157F18-368C-4A2C-B4B8-F2D54C4F90C9} PAGE   45

         00003c 0041 
         00003e 002C 
    2245                    .dwpsn  file "../Dot_Product.c",line 26,column 13,is_stmt,isa 0
    2246 000040 40F1          MOV.B     #66,45(SP)            ; [] |26| 
         000042 0042 
         000044 002D 
    2247                    .dwpsn  file "../Dot_Product.c",line 29,column 16,is_stmt,isa 0
    2248 000046 4381          MOV.W     #0,42(SP)             ; [] |29| 
         000048 002A 
    2249                    .dwpsn  file "../Dot_Product.c",line 31,column 2,is_stmt,isa 0
    2250 00004a 40B1          MOV.W     #$C$SL1+0,0(SP)       ; [] |31| 
         00004c 0000!
         00004e 0000 
    2251 000050 415F          MOV.B     44(SP),r15            ; [] |31| 
         000052 002C 
    2252 000054 4F81          MOV.W     r15,2(SP)             ; [] |31| 
         000056 0002 
    2253            $C$DW$93        .dwtag  DW_TAG_TI_branch
    2254                    .dwattr $C$DW$93, DW_AT_low_pc(0x00)
    2255                    .dwattr $C$DW$93, DW_AT_name("printf")
    2256                    .dwattr $C$DW$93, DW_AT_TI_call
    2257            
    2258 000058 12B0          CALL      #printf               ; [] |31| 
         00005a 0000!
    2259                                                      ; [] |31| 
    2260                    .dwpsn  file "../Dot_Product.c",line 32,column 2,is_stmt,isa 0
    2261 00005c 410C          MOV.W     SP,r12                ; [] |32| 
    2262 00005e 503C          ADD.W     #24,r12               ; [] |32| 
         000060 0018 
    2263 000062 422D          MOV.W     #4,r13                ; [] |32| 
    2264            $C$DW$94        .dwtag  DW_TAG_TI_branch
    2265                    .dwattr $C$DW$94, DW_AT_low_pc(0x00)
    2266                    .dwattr $C$DW$94, DW_AT_name("printarray")
    2267                    .dwattr $C$DW$94, DW_AT_TI_call
    2268            
    2269 000064 12B0          CALL      #printarray           ; [] |32| 
         000066 0000!
    2270                                                      ; [] |32| 
    2271                    .dwpsn  file "../Dot_Product.c",line 34,column 2,is_stmt,isa 0
    2272 000068 40B1          MOV.W     #$C$SL1+0,0(SP)       ; [] |34| 
         00006a 0000!
         00006c 0000 
    2273 00006e 415F          MOV.B     45(SP),r15            ; [] |34| 
         000070 002D 
    2274 000072 4F81          MOV.W     r15,2(SP)             ; [] |34| 
         000074 0002 
    2275            $C$DW$95        .dwtag  DW_TAG_TI_branch
    2276                    .dwattr $C$DW$95, DW_AT_low_pc(0x00)
    2277                    .dwattr $C$DW$95, DW_AT_name("printf")
    2278                    .dwattr $C$DW$95, DW_AT_TI_call
    2279            
    2280 000076 12B0          CALL      #printf               ; [] |34| 
         000078 0000!
    2281                                                      ; [] |34| 
    2282                    .dwpsn  file "../Dot_Product.c",line 35,column 2,is_stmt,isa 0
MSP430 Assembler PC v21.6.0 Thu Jan 27 17:18:09 2022

Copyright (c) 2003-2018 Texas Instruments Incorporated
C:\Users\d_oti\AppData\Local\Temp\{7C157F18-368C-4A2C-B4B8-F2D54C4F90C9} PAGE   46

    2283 00007a 410C          MOV.W     SP,r12                ; [] |35| 
    2284 00007c 503C          ADD.W     #32,r12               ; [] |35| 
         00007e 0020 
    2285 000080 422D          MOV.W     #4,r13                ; [] |35| 
    2286            $C$DW$96        .dwtag  DW_TAG_TI_branch
    2287                    .dwattr $C$DW$96, DW_AT_low_pc(0x00)
    2288                    .dwattr $C$DW$96, DW_AT_name("printarray")
    2289                    .dwattr $C$DW$96, DW_AT_TI_call
    2290            
    2291 000082 12B0          CALL      #printarray           ; [] |35| 
         000084 0000!
    2292                                                      ; [] |35| 
    2293                    .dwpsn  file "../Dot_Product.c",line 37,column 2,is_stmt,isa 0
    2294 000086 40B1          MOV.W     #$C$SL2+0,0(SP)       ; [] |37| 
         000088 0000!
         00008a 0000 
    2295            $C$DW$97        .dwtag  DW_TAG_TI_branch
    2296                    .dwattr $C$DW$97, DW_AT_low_pc(0x00)
    2297                    .dwattr $C$DW$97, DW_AT_name("printf")
    2298                    .dwattr $C$DW$97, DW_AT_TI_call
    2299            
    2300 00008c 12B0          CALL      #printf               ; [] |37| 
         00008e 0000!
    2301                                                      ; [] |37| 
    2302                    .dwpsn  file "../Dot_Product.c",line 40,column 10,is_stmt,isa 0
    2303 000090 4381          MOV.W     #0,40(SP)             ; [] |40| 
         000092 0028 
    2304                    .dwpsn  file "../Dot_Product.c",line 40,column 14,is_stmt,isa 0
    2305 000094 92A1          CMP.W     #4,40(SP)             ; [] |40| 
         000096 0028 
    2306 000098 342A          JGE       $C$L47                ; [] |40| 
    2307                                                      ; [] |40| 
    2308            ;* --------------------------------------------------------------------------*
    2309            ;*   BEGIN LOOP $C$L46
    2310            ;*
    2311            ;*   Loop source line                : 40
    2312            ;*   Loop closing brace source line  : 44
    2313            ;*   Known Minimum Trip Count        : 1
    2314            ;*   Known Maximum Trip Count        : 4294967295
    2315            ;*   Known Max Trip Count Factor     : 1
    2316            ;* --------------------------------------------------------------------------*
    2317 00009a       $C$L46:    
    2318                    .dwpsn  file "../Dot_Product.c",line 42,column 10,is_stmt,isa 0
    2319 00009a 411D          MOV.W     40(SP),r13            ; [] |42| 
         00009c 0028 
    2320 00009e 5D0D          RLA.W     r13                   ; [] |42| 
    2321 0000a0 410F          MOV.W     SP,r15                ; [] |42| 
    2322 0000a2 503F          ADD.W     #24,r15               ; [] |42| 
         0000a4 0018 
    2323 0000a6 5F0D          ADD.W     r15,r13               ; [] |42| 
    2324 0000a8 411F          MOV.W     40(SP),r15            ; [] |42| 
         0000aa 0028 
    2325 0000ac 5F0F          RLA.W     r15                   ; [] |42| 
    2326 0000ae 410E          MOV.W     SP,r14                ; [] |42| 
    2327 0000b0 503E          ADD.W     #32,r14               ; [] |42| 
MSP430 Assembler PC v21.6.0 Thu Jan 27 17:18:09 2022

Copyright (c) 2003-2018 Texas Instruments Incorporated
C:\Users\d_oti\AppData\Local\Temp\{7C157F18-368C-4A2C-B4B8-F2D54C4F90C9} PAGE   47

         0000b2 0020 
    2328 0000b4 5F0E          ADD.W     r15,r14               ; [] |42| 
    2329 0000b6 4E2C          MOV.W     @r14,r12              ; [] |42| 
    2330 0000b8 5D2C          ADD.W     @r13,r12              ; [] |42| 
    2331 0000ba 411F          MOV.W     40(SP),r15            ; [] |42| 
         0000bc 0028 
    2332 0000be 5F0F          RLA.W     r15                   ; [] |42| 
    2333 0000c0 410E          MOV.W     SP,r14                ; [] |42| 
    2334 0000c2 522E          ADD.W     #4,r14                ; [] |42| 
    2335 0000c4 5F0E          ADD.W     r15,r14               ; [] |42| 
    2336 0000c6 4C8E          MOV.W     r12,0(r14)            ; [] |42| 
         0000c8 0000 
    2337                    .dwpsn  file "../Dot_Product.c",line 43,column 10,is_stmt,isa 0
    2338 0000ca 40B1          MOV.W     #$C$SL3+0,0(SP)       ; [] |43| 
         0000cc 0000!
         0000ce 0000 
    2339 0000d0 411F          MOV.W     40(SP),r15            ; [] |43| 
         0000d2 0028 
    2340 0000d4 5F0F          RLA.W     r15                   ; [] |43| 
    2341 0000d6 410E          MOV.W     SP,r14                ; [] |43| 
    2342 0000d8 522E          ADD.W     #4,r14                ; [] |43| 
    2343 0000da 5F0E          ADD.W     r15,r14               ; [] |43| 
    2344 0000dc 4EA1          MOV.W     @r14,2(SP)            ; [] |43| 
         0000de 0002 
    2345            $C$DW$98        .dwtag  DW_TAG_TI_branch
    2346                    .dwattr $C$DW$98, DW_AT_low_pc(0x00)
    2347                    .dwattr $C$DW$98, DW_AT_name("printf")
    2348                    .dwattr $C$DW$98, DW_AT_TI_call
    2349            
    2350 0000e0 12B0          CALL      #printf               ; [] |43| 
         0000e2 0000!
    2351                                                      ; [] |43| 
    2352                    .dwpsn  file "../Dot_Product.c",line 40,column 18,is_stmt,isa 0
    2353 0000e4 5391          ADD.W     #1,40(SP)             ; [] |40| 
         0000e6 0028 
    2354                    .dwpsn  file "../Dot_Product.c",line 40,column 14,is_stmt,isa 0
    2355 0000e8 92A1          CMP.W     #4,40(SP)             ; [] |40| 
         0000ea 0028 
    2356 0000ec 3BD6          JL        $C$L46                ; [] |40| 
    2357                                                      ; [] |40| 
    2358            ;* --------------------------------------------------------------------------*
    2359 0000ee       $C$L47:    
    2360                    .dwpsn  file "../Dot_Product.c",line 46,column 6,is_stmt,isa 0
    2361 0000ee 40B1          MOV.W     #$C$SL4+0,0(SP)       ; [] |46| 
         0000f0 0000!
         0000f2 0000 
    2362            $C$DW$99        .dwtag  DW_TAG_TI_branch
    2363                    .dwattr $C$DW$99, DW_AT_low_pc(0x00)
    2364                    .dwattr $C$DW$99, DW_AT_name("printf")
    2365                    .dwattr $C$DW$99, DW_AT_TI_call
    2366            
    2367 0000f4 12B0          CALL      #printf               ; [] |46| 
         0000f6 0000!
    2368                                                      ; [] |46| 
    2369                    .dwpsn  file "../Dot_Product.c",line 49,column 10,is_stmt,isa 0
MSP430 Assembler PC v21.6.0 Thu Jan 27 17:18:09 2022

Copyright (c) 2003-2018 Texas Instruments Incorporated
C:\Users\d_oti\AppData\Local\Temp\{7C157F18-368C-4A2C-B4B8-F2D54C4F90C9} PAGE   48

    2370 0000f8 4381          MOV.W     #0,40(SP)             ; [] |49| 
         0000fa 0028 
    2371                    .dwpsn  file "../Dot_Product.c",line 49,column 14,is_stmt,isa 0
    2372 0000fc 92A1          CMP.W     #4,40(SP)             ; [] |49| 
         0000fe 0028 
    2373 000100 3419          JGE       $C$L49                ; [] |49| 
    2374                                                      ; [] |49| 
    2375            ;* --------------------------------------------------------------------------*
    2376            ;*   BEGIN LOOP $C$L48
    2377            ;*
    2378            ;*   Loop source line                : 49
    2379            ;*   Loop closing brace source line  : 52
    2380            ;*   Known Minimum Trip Count        : 1
    2381            ;*   Known Maximum Trip Count        : 4294967295
    2382            ;*   Known Max Trip Count Factor     : 1
    2383            ;* --------------------------------------------------------------------------*
    2384 000102       $C$L48:    
    2385                    .dwpsn  file "../Dot_Product.c",line 51,column 10,is_stmt,isa 0
    2386 000102 411F          MOV.W     40(SP),r15            ; [] |51| 
         000104 0028 
    2387 000106 5F0F          RLA.W     r15                   ; [] |51| 
    2388 000108 410E          MOV.W     SP,r14                ; [] |51| 
    2389 00010a 503E          ADD.W     #24,r14               ; [] |51| 
         00010c 0018 
    2390 00010e 5F0E          ADD.W     r15,r14               ; [] |51| 
    2391 000110 4E2C          MOV.W     @r14,r12              ; [] |51| 
    2392 000112 411F          MOV.W     40(SP),r15            ; [] |51| 
         000114 0028 
    2393 000116 5F0F          RLA.W     r15                   ; [] |51| 
    2394 000118 410E          MOV.W     SP,r14                ; [] |51| 
    2395 00011a 503E          ADD.W     #32,r14               ; [] |51| 
         00011c 0020 
    2396 00011e 5F0E          ADD.W     r15,r14               ; [] |51| 
    2397 000120 4E2D          MOV.W     @r14,r13              ; [] |51| 
    2398            $C$DW$100       .dwtag  DW_TAG_TI_branch
    2399                    .dwattr $C$DW$100, DW_AT_low_pc(0x00)
    2400                    .dwattr $C$DW$100, DW_AT_name("__mspabi_mpyi")
    2401                    .dwattr $C$DW$100, DW_AT_TI_call
    2402            
    2403 000122 12B0          CALL      #__mspabi_mpyi        ; [] |51| 
         000124 0000!
    2404                                                      ; [] |51| 
    2405 000126 5C81          ADD.W     r12,42(SP)            ; [] |51| 
         000128 002A 
    2406                    .dwpsn  file "../Dot_Product.c",line 49,column 18,is_stmt,isa 0
    2407 00012a 5391          ADD.W     #1,40(SP)             ; [] |49| 
         00012c 0028 
    2408                    .dwpsn  file "../Dot_Product.c",line 49,column 14,is_stmt,isa 0
    2409 00012e 92A1          CMP.W     #4,40(SP)             ; [] |49| 
         000130 0028 
    2410 000132 3BE7          JL        $C$L48                ; [] |49| 
    2411                                                      ; [] |49| 
    2412            ;* --------------------------------------------------------------------------*
    2413 000134       $C$L49:    
    2414                    .dwpsn  file "../Dot_Product.c",line 53,column 6,is_stmt,isa 0
MSP430 Assembler PC v21.6.0 Thu Jan 27 17:18:09 2022

Copyright (c) 2003-2018 Texas Instruments Incorporated
C:\Users\d_oti\AppData\Local\Temp\{7C157F18-368C-4A2C-B4B8-F2D54C4F90C9} PAGE   49

    2415 000134 40B1          MOV.W     #$C$SL5+0,0(SP)       ; [] |53| 
         000136 0000!
         000138 0000 
    2416 00013a 4191          MOV.W     42(SP),2(SP)          ; [] |53| 
         00013c 002A 
         00013e 0002 
    2417            $C$DW$101       .dwtag  DW_TAG_TI_branch
    2418                    .dwattr $C$DW$101, DW_AT_low_pc(0x00)
    2419                    .dwattr $C$DW$101, DW_AT_name("printf")
    2420                    .dwattr $C$DW$101, DW_AT_TI_call
    2421            
    2422 000140 12B0          CALL      #printf               ; [] |53| 
         000142 0000!
    2423                                                      ; [] |53| 
    2424                    .dwpsn  file "../Dot_Product.c",line 55,column 2,is_stmt,isa 0
    2425 000144 430C          MOV.W     #0,r12                ; [] |55| 
    2426                    .dwpsn  file "../Dot_Product.c",line 56,column 1,is_stmt,isa 0
    2427 000146 5031          ADD.W     #46,SP                ; [] 
         000148 002E 
    2428                    .dwcfi  cfa_offset, 2
    2429            $C$DW$102       .dwtag  DW_TAG_TI_branch
    2430                    .dwattr $C$DW$102, DW_AT_low_pc(0x00)
    2431                    .dwattr $C$DW$102, DW_AT_TI_return
    2432            
    2433 00014a 4130          RET       ; [] 
    2434                    ; [] 
    2435                    .dwattr $C$DW$85, DW_AT_TI_end_file("../Dot_Product.c")
    2436                    .dwattr $C$DW$85, DW_AT_TI_end_line(0x38)
    2437                    .dwattr $C$DW$85, DW_AT_TI_end_column(0x01)
    2438                    .dwendentry
    2439                    .dwendtag $C$DW$85
    2440            
    2441 000000               .sect   ".text:printarray"
    2442                    .clink
    2443                    .global printarray
    2444            
    2445            $C$DW$103       .dwtag  DW_TAG_subprogram
    2446                    .dwattr $C$DW$103, DW_AT_name("printarray")
    2447                    .dwattr $C$DW$103, DW_AT_low_pc(printarray)
    2448                    .dwattr $C$DW$103, DW_AT_high_pc(0x00)
    2449                    .dwattr $C$DW$103, DW_AT_TI_symbol_name("printarray")
    2450                    .dwattr $C$DW$103, DW_AT_external
    2451                    .dwattr $C$DW$103, DW_AT_TI_begin_file("../Dot_Product.c")
    2452                    .dwattr $C$DW$103, DW_AT_TI_begin_line(0x3b)
    2453                    .dwattr $C$DW$103, DW_AT_TI_begin_column(0x06)
    2454                    .dwattr $C$DW$103, DW_AT_decl_file("../Dot_Product.c")
    2455                    .dwattr $C$DW$103, DW_AT_decl_line(0x3b)
    2456                    .dwattr $C$DW$103, DW_AT_decl_column(0x06)
    2457                    .dwattr $C$DW$103, DW_AT_TI_max_frame_size(0x0c)
    2458                    .dwpsn  file "../Dot_Product.c",line 60,column 1,is_stmt,address printarray,isa 0
    2459            
    2460                    .dwfde $C$DW$CIE, printarray
    2461            $C$DW$104       .dwtag  DW_TAG_formal_parameter
    2462                    .dwattr $C$DW$104, DW_AT_name("array")
    2463                    .dwattr $C$DW$104, DW_AT_TI_symbol_name("array")
MSP430 Assembler PC v21.6.0 Thu Jan 27 17:18:09 2022

Copyright (c) 2003-2018 Texas Instruments Incorporated
C:\Users\d_oti\AppData\Local\Temp\{7C157F18-368C-4A2C-B4B8-F2D54C4F90C9} PAGE   50

    2464                    .dwattr $C$DW$104, DW_AT_type(*$C$DW$T$26)
    2465                    .dwattr $C$DW$104, DW_AT_location[DW_OP_reg12]
    2466            
    2467            $C$DW$105       .dwtag  DW_TAG_formal_parameter
    2468                    .dwattr $C$DW$105, DW_AT_name("size")
    2469                    .dwattr $C$DW$105, DW_AT_TI_symbol_name("size")
    2470                    .dwattr $C$DW$105, DW_AT_type(*$C$DW$T$27)
    2471                    .dwattr $C$DW$105, DW_AT_location[DW_OP_reg13]
    2472            
    2473            
    2474            ;*****************************************************************************
    2475            ;* FUNCTION NAME: printarray                                                 *
    2476            ;*                                                                           *
    2477            ;*   Regs Modified     : SP,SR,r11,r12,r13,r14,r15                           *
    2478            ;*   Regs Used         : SP,SR,r11,r12,r13,r14,r15                           *
    2479            ;*   Local Frame Size  : 4 Args + 6 Auto + 0 Save = 10 byte                  *
    2480            ;*****************************************************************************
    2481 000000       printarray:
    2482            ;* --------------------------------------------------------------------------*
    2483                    .dwcfi  cfa_offset, 2
    2484                    .dwcfi  save_reg_to_mem, 16, -2
    2485 000000 8031          SUB.W     #10,SP                ; [] 
         000002 000A 
    2486                    .dwcfi  cfa_offset, 12
    2487            $C$DW$106       .dwtag  DW_TAG_variable
    2488                    .dwattr $C$DW$106, DW_AT_name("array")
    2489                    .dwattr $C$DW$106, DW_AT_TI_symbol_name("array")
    2490                    .dwattr $C$DW$106, DW_AT_type(*$C$DW$T$26)
    2491                    .dwattr $C$DW$106, DW_AT_location[DW_OP_breg1 4]
    2492            
    2493            $C$DW$107       .dwtag  DW_TAG_variable
    2494                    .dwattr $C$DW$107, DW_AT_name("size")
    2495                    .dwattr $C$DW$107, DW_AT_TI_symbol_name("size")
    2496                    .dwattr $C$DW$107, DW_AT_type(*$C$DW$T$27)
    2497                    .dwattr $C$DW$107, DW_AT_location[DW_OP_breg1 6]
    2498            
    2499            $C$DW$108       .dwtag  DW_TAG_variable
    2500                    .dwattr $C$DW$108, DW_AT_name("i")
    2501                    .dwattr $C$DW$108, DW_AT_TI_symbol_name("i")
    2502                    .dwattr $C$DW$108, DW_AT_type(*$C$DW$T$10)
    2503                    .dwattr $C$DW$108, DW_AT_location[DW_OP_breg1 8]
    2504            
    2505 000004 4D81          MOV.W     r13,6(SP)             ; [] |60| 
         000006 0006 
    2506 000008 4C81          MOV.W     r12,4(SP)             ; [] |60| 
         00000a 0004 
    2507                    .dwpsn  file "../Dot_Product.c",line 63,column 9,is_stmt,isa 0
    2508 00000c 4381          MOV.W     #0,8(SP)              ; [] |63| 
         00000e 0008 
    2509 000010 3C0E          JMP       $C$L51                ; [] |63| 
    2510                                                      ; [] |63| 
    2511            ;* --------------------------------------------------------------------------*
    2512 000012       $C$L50:    
    2513                    .dwpsn  file "../Dot_Product.c",line 65,column 9,is_stmt,isa 0
    2514 000012 40B1          MOV.W     #$C$SL6+0,0(SP)       ; [] |65| 
MSP430 Assembler PC v21.6.0 Thu Jan 27 17:18:09 2022

Copyright (c) 2003-2018 Texas Instruments Incorporated
C:\Users\d_oti\AppData\Local\Temp\{7C157F18-368C-4A2C-B4B8-F2D54C4F90C9} PAGE   51

         000014 0000!
         000016 0000 
    2515 000018 411F          MOV.W     8(SP),r15             ; [] |65| 
         00001a 0008 
    2516 00001c 5F0F          RLA.W     r15                   ; [] |65| 
    2517 00001e 511F          ADD.W     4(SP),r15             ; [] |65| 
         000020 0004 
    2518 000022 4FA1          MOV.W     @r15,2(SP)            ; [] |65| 
         000024 0002 
    2519            $C$DW$109       .dwtag  DW_TAG_TI_branch
    2520                    .dwattr $C$DW$109, DW_AT_low_pc(0x00)
    2521                    .dwattr $C$DW$109, DW_AT_name("printf")
    2522                    .dwattr $C$DW$109, DW_AT_TI_call
    2523            
    2524 000026 12B0          CALL      #printf               ; [] |65| 
         000028 0000!
    2525                                                      ; [] |65| 
    2526                    .dwpsn  file "../Dot_Product.c",line 63,column 24,is_stmt,isa 0
    2527 00002a 5391          ADD.W     #1,8(SP)              ; [] |63| 
         00002c 0008 
    2528            ;* --------------------------------------------------------------------------*
    2529            ;*   BEGIN LOOP $C$L51
    2530            ;* --------------------------------------------------------------------------*
    2531 00002e       $C$L51:    
    2532                    .dwpsn  file "../Dot_Product.c",line 63,column 14,is_stmt,isa 0
    2533 00002e 411F          MOV.W     6(SP),r15             ; [] |63| 
         000030 0006 
    2534 000032 831F          SUB.W     #1,r15                ; [] |63| 
    2535 000034 9F81          CMP.W     r15,8(SP)             ; [] |63| 
         000036 0008 
    2536 000038 3BEC          JL        $C$L50                ; [] |63| 
    2537                                                      ; [] |63| 
    2538            ;* --------------------------------------------------------------------------*
    2539                    .dwpsn  file "../Dot_Product.c",line 67,column 5,is_stmt,isa 0
    2540 00003a 40B1          MOV.W     #$C$SL7+0,0(SP)       ; [] |67| 
         00003c 0000!
         00003e 0000 
    2541 000040 411F          MOV.W     8(SP),r15             ; [] |67| 
         000042 0008 
    2542 000044 5F0F          RLA.W     r15                   ; [] |67| 
    2543 000046 511F          ADD.W     4(SP),r15             ; [] |67| 
         000048 0004 
    2544 00004a 4FA1          MOV.W     @r15,2(SP)            ; [] |67| 
         00004c 0002 
    2545            $C$DW$110       .dwtag  DW_TAG_TI_branch
    2546                    .dwattr $C$DW$110, DW_AT_low_pc(0x00)
    2547                    .dwattr $C$DW$110, DW_AT_name("printf")
    2548                    .dwattr $C$DW$110, DW_AT_TI_call
    2549            
    2550 00004e 12B0          CALL      #printf               ; [] |67| 
         000050 0000!
    2551                                                      ; [] |67| 
    2552                    .dwpsn  file "../Dot_Product.c",line 68,column 1,is_stmt,isa 0
    2553 000052 5031          ADD.W     #10,SP                ; [] 
         000054 000A 
MSP430 Assembler PC v21.6.0 Thu Jan 27 17:18:09 2022

Copyright (c) 2003-2018 Texas Instruments Incorporated
C:\Users\d_oti\AppData\Local\Temp\{7C157F18-368C-4A2C-B4B8-F2D54C4F90C9} PAGE   52

    2554                    .dwcfi  cfa_offset, 2
    2555            $C$DW$111       .dwtag  DW_TAG_TI_branch
    2556                    .dwattr $C$DW$111, DW_AT_low_pc(0x00)
    2557                    .dwattr $C$DW$111, DW_AT_TI_return
    2558            
    2559 000056 4130          RET       ; [] 
    2560                    ; [] 
    2561                    .dwattr $C$DW$103, DW_AT_TI_end_file("../Dot_Product.c")
    2562                    .dwattr $C$DW$103, DW_AT_TI_end_line(0x44)
    2563                    .dwattr $C$DW$103, DW_AT_TI_end_column(0x01)
    2564                    .dwendentry
    2565                    .dwendtag $C$DW$103
    2566            
    2567            ;******************************************************************************
    2568            ;* STRINGS                                                                    *
    2569            ;******************************************************************************
    2570 000000               .sect   ".const:.string"
    2571                    .align  2
    2572 000000 0049  $C$SL1: .string "Input Array %c: [",0
         000001 006E 
         000002 0070 
         000003 0075 
         000004 0074 
         000005 0020 
         000006 0041 
         000007 0072 
         000008 0072 
         000009 0061 
         00000a 0079 
         00000b 0020 
         00000c 0025 
         00000d 0063 
         00000e 003A 
         00000f 0020 
         000010 005B 
         000011 0000 
    2573                    .align  2
    2574 000012 0053  $C$SL2: .string "Sum of the arrays: [",0
         000013 0075 
         000014 006D 
         000015 0020 
         000016 006F 
         000017 0066 
         000018 0020 
         000019 0074 
         00001a 0068 
         00001b 0065 
         00001c 0020 
         00001d 0061 
         00001e 0072 
         00001f 0072 
         000020 0061 
         000021 0079 
         000022 0073 
         000023 003A 
MSP430 Assembler PC v21.6.0 Thu Jan 27 17:18:09 2022

Copyright (c) 2003-2018 Texas Instruments Incorporated
C:\Users\d_oti\AppData\Local\Temp\{7C157F18-368C-4A2C-B4B8-F2D54C4F90C9} PAGE   53

         000024 0020 
         000025 005B 
         000026 0000 
    2575                    .align  2
    2576 000028 0025  $C$SL3: .string "%d ",0
         000029 0064 
         00002a 0020 
         00002b 0000 
    2577                    .align  2
    2578 00002c 005D  $C$SL4: .string "]",10,0
         00002d 000A 
         00002e 0000 
    2579                    .align  2
    2580 000030 0044  $C$SL5: .string "Dot Product of the arrays: [%d]",10,0
         000031 006F 
         000032 0074 
         000033 0020 
         000034 0050 
         000035 0072 
         000036 006F 
         000037 0064 
         000038 0075 
         000039 0063 
         00003a 0074 
         00003b 0020 
         00003c 006F 
         00003d 0066 
         00003e 0020 
         00003f 0074 
         000040 0068 
         000041 0065 
         000042 0020 
         000043 0061 
         000044 0072 
         000045 0072 
         000046 0061 
         000047 0079 
         000048 0073 
         000049 003A 
         00004a 0020 
         00004b 005B 
         00004c 0025 
         00004d 0064 
         00004e 005D 
         00004f 000A 
         000050 0000 
    2581                    .align  2
    2582 000052 0020  $C$SL6: .string " %d ",0
         000053 0025 
         000054 0064 
         000055 0020 
         000056 0000 
    2583                    .align  2
    2584 000058 0025  $C$SL7: .string "%d]",10,0
         000059 0064 
MSP430 Assembler PC v21.6.0 Thu Jan 27 17:18:09 2022

Copyright (c) 2003-2018 Texas Instruments Incorporated
C:\Users\d_oti\AppData\Local\Temp\{7C157F18-368C-4A2C-B4B8-F2D54C4F90C9} PAGE   54

         00005a 005D 
         00005b 000A 
         00005c 0000 
    2585            ;*****************************************************************************
    2586            ;* UNDEFINED EXTERNAL REFERENCES                                             *
    2587            ;*****************************************************************************
    2588                    .global WDTCTL
    2589                    .global printf
    2590                    .global __mspabi_srlll
    2591                    .global __mspabi_func_epilog_5
    2592                    .global __mspabi_srli_7
    2593                    .global __mspabi_func_epilog_3
    2594                    .global __mspabi_mpyi
    2595            ;*****************************************************************************
    2596            ;* SECTION GROUPS                                                            *
    2597            ;*****************************************************************************
    2598                    .group    "__fpclassify", 1
    2599                    .gmember  ".text:__fpclassify"
    2600                    .endgroup
    2601                    .group    "__fpclassifyf", 1
    2602                    .gmember  ".text:__fpclassifyf"
    2603                    .endgroup
    2604                    .group    "__fpclassifyl", 1
    2605                    .gmember  ".text:__fpclassifyl"
    2606                    .endgroup
    2607                    .group    "__isfinite", 1
    2608                    .gmember  ".text:__isfinite"
    2609                    .endgroup
    2610                    .group    "__isfinitef", 1
    2611                    .gmember  ".text:__isfinitef"
    2612                    .endgroup
    2613                    .group    "__isfinitel", 1
    2614                    .gmember  ".text:__isfinitel"
    2615                    .endgroup
    2616                    .group    "__isinf", 1
    2617                    .gmember  ".text:__isinf"
    2618                    .endgroup
    2619                    .group    "__isinff", 1
    2620                    .gmember  ".text:__isinff"
    2621                    .endgroup
    2622                    .group    "__isinfl", 1
    2623                    .gmember  ".text:__isinfl"
    2624                    .endgroup
    2625                    .group    "__isnan", 1
    2626                    .gmember  ".text:__isnan"
    2627                    .endgroup
    2628                    .group    "__isnanf", 1
    2629                    .gmember  ".text:__isnanf"
    2630                    .endgroup
    2631                    .group    "__isnanl", 1
    2632                    .gmember  ".text:__isnanl"
    2633                    .endgroup
    2634                    .group    "__isnormal", 1
    2635                    .gmember  ".text:__isnormal"
    2636                    .endgroup
MSP430 Assembler PC v21.6.0 Thu Jan 27 17:18:09 2022

Copyright (c) 2003-2018 Texas Instruments Incorporated
C:\Users\d_oti\AppData\Local\Temp\{7C157F18-368C-4A2C-B4B8-F2D54C4F90C9} PAGE   55

    2637                    .group    "__isnormalf", 1
    2638                    .gmember  ".text:__isnormalf"
    2639                    .endgroup
    2640                    .group    "__isnormall", 1
    2641                    .gmember  ".text:__isnormall"
    2642                    .endgroup
    2643                    .group    "__signbit", 1
    2644                    .gmember  ".text:__signbit"
    2645                    .endgroup
    2646                    .group    "__signbitf", 1
    2647                    .gmember  ".text:__signbitf"
    2648                    .endgroup
    2649                    .group    "__signbitl", 1
    2650                    .gmember  ".text:__signbitl"
    2651                    .endgroup
    2652            
    2653            
    2654            ;******************************************************************************
    2655            ;* BUILD ATTRIBUTES                                                           *
    2656            ;******************************************************************************
    2657                    .battr "TI", Tag_File, 1, Tag_LPM_INFO(1)
    2658                    .battr "TI", Tag_File, 1, Tag_PORTS_INIT_INFO("012345678901ABCDEFGHIJ0000000000001111000000000
    2659                    .battr "TI", Tag_File, 1, Tag_LEA_INFO(1)
    2660                    .battr "TI", Tag_File, 1, Tag_HW_MPY32_INFO(2)
    2661                    .battr "TI", Tag_File, 1, Tag_HW_MPY_ISR_INFO(1)
    2662                    .battr "TI", Tag_File, 1, Tag_HW_MPY_INLINE_INFO(1)
    2663                    .battr "mspabi", Tag_File, 1, Tag_enum_size(3)
    2664            
    2665            ;******************************************************************************
    2666            ;* TYPE INFORMATION                                                           *
    2667            ;******************************************************************************
    2668            
    2669            $C$DW$T$22      .dwtag  DW_TAG_structure_type
    2670                    .dwattr $C$DW$T$22, DW_AT_byte_size(0x10)
    2671            $C$DW$112       .dwtag  DW_TAG_member
    2672                    .dwattr $C$DW$112, DW_AT_type(*$C$DW$T$14)
    2673                    .dwattr $C$DW$112, DW_AT_name("__max_align1")
    2674                    .dwattr $C$DW$112, DW_AT_TI_symbol_name("__max_align1")
    2675                    .dwattr $C$DW$112, DW_AT_data_member_location[DW_OP_plus_uconst 0x0]
    2676                    .dwattr $C$DW$112, DW_AT_accessibility(DW_ACCESS_public)
    2677                    .dwattr $C$DW$112, DW_AT_decl_file("C:/ti/ccs1110/ccs/tools/compiler/ti-cgt-msp430_21.6.0.LTS/
    2678                    .dwattr $C$DW$112, DW_AT_decl_line(0x7b)
    2679                    .dwattr $C$DW$112, DW_AT_decl_column(0x0c)
    2680            
    2681            $C$DW$113       .dwtag  DW_TAG_member
    2682                    .dwattr $C$DW$113, DW_AT_type(*$C$DW$T$18)
    2683                    .dwattr $C$DW$113, DW_AT_name("__max_align2")
    2684                    .dwattr $C$DW$113, DW_AT_TI_symbol_name("__max_align2")
    2685                    .dwattr $C$DW$113, DW_AT_data_member_location[DW_OP_plus_uconst 0x8]
    2686                    .dwattr $C$DW$113, DW_AT_accessibility(DW_ACCESS_public)
    2687                    .dwattr $C$DW$113, DW_AT_decl_file("C:/ti/ccs1110/ccs/tools/compiler/ti-cgt-msp430_21.6.0.LTS/
    2688                    .dwattr $C$DW$113, DW_AT_decl_line(0x7c)
    2689                    .dwattr $C$DW$113, DW_AT_decl_column(0x0e)
    2690            
    2691                    .dwattr $C$DW$T$22, DW_AT_decl_file("C:/ti/ccs1110/ccs/tools/compiler/ti-cgt-msp430_21.6.0.LTS
MSP430 Assembler PC v21.6.0 Thu Jan 27 17:18:09 2022

Copyright (c) 2003-2018 Texas Instruments Incorporated
C:\Users\d_oti\AppData\Local\Temp\{7C157F18-368C-4A2C-B4B8-F2D54C4F90C9} PAGE   56

    2692                    .dwattr $C$DW$T$22, DW_AT_decl_line(0x7a)
    2693                    .dwattr $C$DW$T$22, DW_AT_decl_column(0x10)
    2694                    .dwendtag $C$DW$T$22
    2695            
    2696            $C$DW$T$25      .dwtag  DW_TAG_typedef
    2697                    .dwattr $C$DW$T$25, DW_AT_name("__max_align_t")
    2698                    .dwattr $C$DW$T$25, DW_AT_type(*$C$DW$T$22)
    2699                    .dwattr $C$DW$T$25, DW_AT_language(DW_LANG_C)
    2700                    .dwattr $C$DW$T$25, DW_AT_decl_file("C:/ti/ccs1110/ccs/tools/compiler/ti-cgt-msp430_21.6.0.LTS
    2701                    .dwattr $C$DW$T$25, DW_AT_decl_line(0x7d)
    2702                    .dwattr $C$DW$T$25, DW_AT_decl_column(0x03)
    2703            
    2704            $C$DW$T$2       .dwtag  DW_TAG_unspecified_type
    2705                    .dwattr $C$DW$T$2, DW_AT_name("void")
    2706            
    2707            
    2708            $C$DW$T$30      .dwtag  DW_TAG_subroutine_type
    2709                    .dwattr $C$DW$T$30, DW_AT_language(DW_LANG_C)
    2710                    .dwendtag $C$DW$T$30
    2711            
    2712            $C$DW$T$31      .dwtag  DW_TAG_pointer_type
    2713                    .dwattr $C$DW$T$31, DW_AT_type(*$C$DW$T$30)
    2714                    .dwattr $C$DW$T$31, DW_AT_address_class(0x10)
    2715            
    2716            $C$DW$T$32      .dwtag  DW_TAG_typedef
    2717                    .dwattr $C$DW$T$32, DW_AT_name("__SFR_FARPTR")
    2718                    .dwattr $C$DW$T$32, DW_AT_type(*$C$DW$T$31)
    2719                    .dwattr $C$DW$T$32, DW_AT_language(DW_LANG_C)
    2720                    .dwattr $C$DW$T$32, DW_AT_decl_file("C:\ti\ccs1110\ccs\ccs_base\msp430\include\msp430f5529.h")
    2721                    .dwattr $C$DW$T$32, DW_AT_decl_line(0x4a)
    2722                    .dwattr $C$DW$T$32, DW_AT_decl_column(0x11)
    2723            
    2724            $C$DW$T$4       .dwtag  DW_TAG_base_type
    2725                    .dwattr $C$DW$T$4, DW_AT_encoding(DW_ATE_boolean)
    2726                    .dwattr $C$DW$T$4, DW_AT_name("bool")
    2727                    .dwattr $C$DW$T$4, DW_AT_byte_size(0x01)
    2728            
    2729            $C$DW$T$5       .dwtag  DW_TAG_base_type
    2730                    .dwattr $C$DW$T$5, DW_AT_encoding(DW_ATE_signed_char)
    2731                    .dwattr $C$DW$T$5, DW_AT_name("signed char")
    2732                    .dwattr $C$DW$T$5, DW_AT_byte_size(0x01)
    2733            
    2734            $C$DW$T$33      .dwtag  DW_TAG_typedef
    2735                    .dwattr $C$DW$T$33, DW_AT_name("__int8_t")
    2736                    .dwattr $C$DW$T$33, DW_AT_type(*$C$DW$T$5)
    2737                    .dwattr $C$DW$T$33, DW_AT_language(DW_LANG_C)
    2738                    .dwattr $C$DW$T$33, DW_AT_decl_file("C:/ti/ccs1110/ccs/tools/compiler/ti-cgt-msp430_21.6.0.LTS
    2739                    .dwattr $C$DW$T$33, DW_AT_decl_line(0x36)
    2740                    .dwattr $C$DW$T$33, DW_AT_decl_column(0x16)
    2741            
    2742            $C$DW$T$34      .dwtag  DW_TAG_typedef
    2743                    .dwattr $C$DW$T$34, DW_AT_name("__int_least8_t")
    2744                    .dwattr $C$DW$T$34, DW_AT_type(*$C$DW$T$33)
    2745                    .dwattr $C$DW$T$34, DW_AT_language(DW_LANG_C)
    2746                    .dwattr $C$DW$T$34, DW_AT_decl_file("C:/ti/ccs1110/ccs/tools/compiler/ti-cgt-msp430_21.6.0.LTS
MSP430 Assembler PC v21.6.0 Thu Jan 27 17:18:09 2022

Copyright (c) 2003-2018 Texas Instruments Incorporated
C:\Users\d_oti\AppData\Local\Temp\{7C157F18-368C-4A2C-B4B8-F2D54C4F90C9} PAGE   57

    2747                    .dwattr $C$DW$T$34, DW_AT_decl_line(0x5a)
    2748                    .dwattr $C$DW$T$34, DW_AT_decl_column(0x12)
    2749            
    2750            $C$DW$T$6       .dwtag  DW_TAG_base_type
    2751                    .dwattr $C$DW$T$6, DW_AT_encoding(DW_ATE_unsigned_char)
    2752                    .dwattr $C$DW$T$6, DW_AT_name("unsigned char")
    2753                    .dwattr $C$DW$T$6, DW_AT_byte_size(0x01)
    2754            
    2755            $C$DW$T$23      .dwtag  DW_TAG_pointer_type
    2756                    .dwattr $C$DW$T$23, DW_AT_type(*$C$DW$T$6)
    2757                    .dwattr $C$DW$T$23, DW_AT_address_class(0x10)
    2758            
    2759            $C$DW$T$35      .dwtag  DW_TAG_typedef
    2760                    .dwattr $C$DW$T$35, DW_AT_name("__uint8_t")
    2761                    .dwattr $C$DW$T$35, DW_AT_type(*$C$DW$T$6)
    2762                    .dwattr $C$DW$T$35, DW_AT_language(DW_LANG_C)
    2763                    .dwattr $C$DW$T$35, DW_AT_decl_file("C:/ti/ccs1110/ccs/tools/compiler/ti-cgt-msp430_21.6.0.LTS
    2764                    .dwattr $C$DW$T$35, DW_AT_decl_line(0x37)
    2765                    .dwattr $C$DW$T$35, DW_AT_decl_column(0x18)
    2766            
    2767            $C$DW$T$36      .dwtag  DW_TAG_typedef
    2768                    .dwattr $C$DW$T$36, DW_AT_name("__sa_family_t")
    2769                    .dwattr $C$DW$T$36, DW_AT_type(*$C$DW$T$35)
    2770                    .dwattr $C$DW$T$36, DW_AT_language(DW_LANG_C)
    2771                    .dwattr $C$DW$T$36, DW_AT_decl_file("C:/ti/ccs1110/ccs/tools/compiler/ti-cgt-msp430_21.6.0.LTS
    2772                    .dwattr $C$DW$T$36, DW_AT_decl_line(0x47)
    2773                    .dwattr $C$DW$T$36, DW_AT_decl_column(0x13)
    2774            
    2775            $C$DW$T$37      .dwtag  DW_TAG_typedef
    2776                    .dwattr $C$DW$T$37, DW_AT_name("__uint_least8_t")
    2777                    .dwattr $C$DW$T$37, DW_AT_type(*$C$DW$T$35)
    2778                    .dwattr $C$DW$T$37, DW_AT_language(DW_LANG_C)
    2779                    .dwattr $C$DW$T$37, DW_AT_decl_file("C:/ti/ccs1110/ccs/tools/compiler/ti-cgt-msp430_21.6.0.LTS
    2780                    .dwattr $C$DW$T$37, DW_AT_decl_line(0x74)
    2781                    .dwattr $C$DW$T$37, DW_AT_decl_column(0x13)
    2782            
    2783            $C$DW$T$7       .dwtag  DW_TAG_base_type
    2784                    .dwattr $C$DW$T$7, DW_AT_encoding(DW_ATE_signed_char)
    2785                    .dwattr $C$DW$T$7, DW_AT_name("wchar_t")
    2786                    .dwattr $C$DW$T$7, DW_AT_byte_size(0x02)
    2787            
    2788            $C$DW$T$8       .dwtag  DW_TAG_base_type
    2789                    .dwattr $C$DW$T$8, DW_AT_encoding(DW_ATE_signed)
    2790                    .dwattr $C$DW$T$8, DW_AT_name("short")
    2791                    .dwattr $C$DW$T$8, DW_AT_byte_size(0x02)
    2792            
    2793            $C$DW$T$9       .dwtag  DW_TAG_base_type
    2794                    .dwattr $C$DW$T$9, DW_AT_encoding(DW_ATE_unsigned)
    2795                    .dwattr $C$DW$T$9, DW_AT_name("unsigned short")
    2796                    .dwattr $C$DW$T$9, DW_AT_byte_size(0x02)
    2797            
    2798            $C$DW$T$10      .dwtag  DW_TAG_base_type
    2799                    .dwattr $C$DW$T$10, DW_AT_encoding(DW_ATE_signed)
    2800                    .dwattr $C$DW$T$10, DW_AT_name("int")
    2801                    .dwattr $C$DW$T$10, DW_AT_byte_size(0x02)
MSP430 Assembler PC v21.6.0 Thu Jan 27 17:18:09 2022

Copyright (c) 2003-2018 Texas Instruments Incorporated
C:\Users\d_oti\AppData\Local\Temp\{7C157F18-368C-4A2C-B4B8-F2D54C4F90C9} PAGE   58

    2802            
    2803            $C$DW$T$38      .dwtag  DW_TAG_typedef
    2804                    .dwattr $C$DW$T$38, DW_AT_name("_Mbstatet")
    2805                    .dwattr $C$DW$T$38, DW_AT_type(*$C$DW$T$10)
    2806                    .dwattr $C$DW$T$38, DW_AT_language(DW_LANG_C)
    2807                    .dwattr $C$DW$T$38, DW_AT_decl_file("C:/ti/ccs1110/ccs/tools/compiler/ti-cgt-msp430_21.6.0.LTS
    2808                    .dwattr $C$DW$T$38, DW_AT_decl_line(0x8f)
    2809                    .dwattr $C$DW$T$38, DW_AT_decl_column(0x0d)
    2810            
    2811            $C$DW$T$39      .dwtag  DW_TAG_typedef
    2812                    .dwattr $C$DW$T$39, DW_AT_name("__mbstate_t")
    2813                    .dwattr $C$DW$T$39, DW_AT_type(*$C$DW$T$38)
    2814                    .dwattr $C$DW$T$39, DW_AT_language(DW_LANG_C)
    2815                    .dwattr $C$DW$T$39, DW_AT_decl_file("C:/ti/ccs1110/ccs/tools/compiler/ti-cgt-msp430_21.6.0.LTS
    2816                    .dwattr $C$DW$T$39, DW_AT_decl_line(0x92)
    2817                    .dwattr $C$DW$T$39, DW_AT_decl_column(0x13)
    2818            
    2819            $C$DW$T$40      .dwtag  DW_TAG_typedef
    2820                    .dwattr $C$DW$T$40, DW_AT_name("__accmode_t")
    2821                    .dwattr $C$DW$T$40, DW_AT_type(*$C$DW$T$10)
    2822                    .dwattr $C$DW$T$40, DW_AT_language(DW_LANG_C)
    2823                    .dwattr $C$DW$T$40, DW_AT_decl_file("C:/ti/ccs1110/ccs/tools/compiler/ti-cgt-msp430_21.6.0.LTS
    2824                    .dwattr $C$DW$T$40, DW_AT_decl_line(0x3b)
    2825                    .dwattr $C$DW$T$40, DW_AT_decl_column(0x0e)
    2826            
    2827            $C$DW$T$26      .dwtag  DW_TAG_pointer_type
    2828                    .dwattr $C$DW$T$26, DW_AT_type(*$C$DW$T$10)
    2829                    .dwattr $C$DW$T$26, DW_AT_address_class(0x10)
    2830            
    2831            $C$DW$T$27      .dwtag  DW_TAG_const_type
    2832                    .dwattr $C$DW$T$27, DW_AT_type(*$C$DW$T$10)
    2833            
    2834            
    2835            $C$DW$T$51      .dwtag  DW_TAG_array_type
    2836                    .dwattr $C$DW$T$51, DW_AT_type(*$C$DW$T$27)
    2837                    .dwattr $C$DW$T$51, DW_AT_language(DW_LANG_C)
    2838                    .dwattr $C$DW$T$51, DW_AT_byte_size(0x08)
    2839            $C$DW$114       .dwtag  DW_TAG_subrange_type
    2840                    .dwattr $C$DW$114, DW_AT_upper_bound(0x03)
    2841            
    2842                    .dwendtag $C$DW$T$51
    2843            
    2844            
    2845            $C$DW$T$52      .dwtag  DW_TAG_array_type
    2846                    .dwattr $C$DW$T$52, DW_AT_type(*$C$DW$T$10)
    2847                    .dwattr $C$DW$T$52, DW_AT_language(DW_LANG_C)
    2848                    .dwattr $C$DW$T$52, DW_AT_byte_size(0x08)
    2849            $C$DW$115       .dwtag  DW_TAG_subrange_type
    2850                    .dwattr $C$DW$115, DW_AT_upper_bound(0x03)
    2851            
    2852                    .dwendtag $C$DW$T$52
    2853            
    2854            
    2855            $C$DW$T$53      .dwtag  DW_TAG_array_type
    2856                    .dwattr $C$DW$T$53, DW_AT_type(*$C$DW$T$10)
MSP430 Assembler PC v21.6.0 Thu Jan 27 17:18:09 2022

Copyright (c) 2003-2018 Texas Instruments Incorporated
C:\Users\d_oti\AppData\Local\Temp\{7C157F18-368C-4A2C-B4B8-F2D54C4F90C9} PAGE   59

    2857                    .dwattr $C$DW$T$53, DW_AT_language(DW_LANG_C)
    2858                    .dwattr $C$DW$T$53, DW_AT_byte_size(0x14)
    2859            $C$DW$116       .dwtag  DW_TAG_subrange_type
    2860                    .dwattr $C$DW$116, DW_AT_upper_bound(0x09)
    2861            
    2862                    .dwendtag $C$DW$T$53
    2863            
    2864            $C$DW$T$54      .dwtag  DW_TAG_typedef
    2865                    .dwattr $C$DW$T$54, DW_AT_name("__cpulevel_t")
    2866                    .dwattr $C$DW$T$54, DW_AT_type(*$C$DW$T$10)
    2867                    .dwattr $C$DW$T$54, DW_AT_language(DW_LANG_C)
    2868                    .dwattr $C$DW$T$54, DW_AT_decl_file("C:/ti/ccs1110/ccs/tools/compiler/ti-cgt-msp430_21.6.0.LTS
    2869                    .dwattr $C$DW$T$54, DW_AT_decl_line(0x50)
    2870                    .dwattr $C$DW$T$54, DW_AT_decl_column(0x0e)
    2871            
    2872            $C$DW$T$55      .dwtag  DW_TAG_typedef
    2873                    .dwattr $C$DW$T$55, DW_AT_name("__cpusetid_t")
    2874                    .dwattr $C$DW$T$55, DW_AT_type(*$C$DW$T$10)
    2875                    .dwattr $C$DW$T$55, DW_AT_language(DW_LANG_C)
    2876                    .dwattr $C$DW$T$55, DW_AT_decl_file("C:/ti/ccs1110/ccs/tools/compiler/ti-cgt-msp430_21.6.0.LTS
    2877                    .dwattr $C$DW$T$55, DW_AT_decl_line(0x51)
    2878                    .dwattr $C$DW$T$55, DW_AT_decl_column(0x0e)
    2879            
    2880            $C$DW$T$56      .dwtag  DW_TAG_typedef
    2881                    .dwattr $C$DW$T$56, DW_AT_name("__cpuwhich_t")
    2882                    .dwattr $C$DW$T$56, DW_AT_type(*$C$DW$T$10)
    2883                    .dwattr $C$DW$T$56, DW_AT_language(DW_LANG_C)
    2884                    .dwattr $C$DW$T$56, DW_AT_decl_file("C:/ti/ccs1110/ccs/tools/compiler/ti-cgt-msp430_21.6.0.LTS
    2885                    .dwattr $C$DW$T$56, DW_AT_decl_line(0x4f)
    2886                    .dwattr $C$DW$T$56, DW_AT_decl_column(0x0e)
    2887            
    2888            $C$DW$T$57      .dwtag  DW_TAG_typedef
    2889                    .dwattr $C$DW$T$57, DW_AT_name("__ct_rune_t")
    2890                    .dwattr $C$DW$T$57, DW_AT_type(*$C$DW$T$10)
    2891                    .dwattr $C$DW$T$57, DW_AT_language(DW_LANG_C)
    2892                    .dwattr $C$DW$T$57, DW_AT_decl_file("C:/ti/ccs1110/ccs/tools/compiler/ti-cgt-msp430_21.6.0.LTS
    2893                    .dwattr $C$DW$T$57, DW_AT_decl_line(0x69)
    2894                    .dwattr $C$DW$T$57, DW_AT_decl_column(0x0e)
    2895            
    2896            $C$DW$T$58      .dwtag  DW_TAG_typedef
    2897                    .dwattr $C$DW$T$58, DW_AT_name("__rune_t")
    2898                    .dwattr $C$DW$T$58, DW_AT_type(*$C$DW$T$57)
    2899                    .dwattr $C$DW$T$58, DW_AT_language(DW_LANG_C)
    2900                    .dwattr $C$DW$T$58, DW_AT_decl_file("C:/ti/ccs1110/ccs/tools/compiler/ti-cgt-msp430_21.6.0.LTS
    2901                    .dwattr $C$DW$T$58, DW_AT_decl_line(0x6c)
    2902                    .dwattr $C$DW$T$58, DW_AT_decl_column(0x15)
    2903            
    2904            $C$DW$T$59      .dwtag  DW_TAG_typedef
    2905                    .dwattr $C$DW$T$59, DW_AT_name("__wint_t")
    2906                    .dwattr $C$DW$T$59, DW_AT_type(*$C$DW$T$57)
    2907                    .dwattr $C$DW$T$59, DW_AT_language(DW_LANG_C)
    2908                    .dwattr $C$DW$T$59, DW_AT_decl_file("C:/ti/ccs1110/ccs/tools/compiler/ti-cgt-msp430_21.6.0.LTS
    2909                    .dwattr $C$DW$T$59, DW_AT_decl_line(0x6d)
    2910                    .dwattr $C$DW$T$59, DW_AT_decl_column(0x15)
    2911            
MSP430 Assembler PC v21.6.0 Thu Jan 27 17:18:09 2022

Copyright (c) 2003-2018 Texas Instruments Incorporated
C:\Users\d_oti\AppData\Local\Temp\{7C157F18-368C-4A2C-B4B8-F2D54C4F90C9} PAGE   60

    2912            $C$DW$T$60      .dwtag  DW_TAG_typedef
    2913                    .dwattr $C$DW$T$60, DW_AT_name("__int16_t")
    2914                    .dwattr $C$DW$T$60, DW_AT_type(*$C$DW$T$10)
    2915                    .dwattr $C$DW$T$60, DW_AT_language(DW_LANG_C)
    2916                    .dwattr $C$DW$T$60, DW_AT_decl_file("C:/ti/ccs1110/ccs/tools/compiler/ti-cgt-msp430_21.6.0.LTS
    2917                    .dwattr $C$DW$T$60, DW_AT_decl_line(0x38)
    2918                    .dwattr $C$DW$T$60, DW_AT_decl_column(0x0f)
    2919            
    2920            $C$DW$T$61      .dwtag  DW_TAG_typedef
    2921                    .dwattr $C$DW$T$61, DW_AT_name("__int_fast16_t")
    2922                    .dwattr $C$DW$T$61, DW_AT_type(*$C$DW$T$60)
    2923                    .dwattr $C$DW$T$61, DW_AT_language(DW_LANG_C)
    2924                    .dwattr $C$DW$T$61, DW_AT_decl_file("C:/ti/ccs1110/ccs/tools/compiler/ti-cgt-msp430_21.6.0.LTS
    2925                    .dwattr $C$DW$T$61, DW_AT_decl_line(0x57)
    2926                    .dwattr $C$DW$T$61, DW_AT_decl_column(0x13)
    2927            
    2928            $C$DW$T$62      .dwtag  DW_TAG_typedef
    2929                    .dwattr $C$DW$T$62, DW_AT_name("__int_fast8_t")
    2930                    .dwattr $C$DW$T$62, DW_AT_type(*$C$DW$T$60)
    2931                    .dwattr $C$DW$T$62, DW_AT_language(DW_LANG_C)
    2932                    .dwattr $C$DW$T$62, DW_AT_decl_file("C:/ti/ccs1110/ccs/tools/compiler/ti-cgt-msp430_21.6.0.LTS
    2933                    .dwattr $C$DW$T$62, DW_AT_decl_line(0x56)
    2934                    .dwattr $C$DW$T$62, DW_AT_decl_column(0x13)
    2935            
    2936            $C$DW$T$63      .dwtag  DW_TAG_typedef
    2937                    .dwattr $C$DW$T$63, DW_AT_name("__int_least16_t")
    2938                    .dwattr $C$DW$T$63, DW_AT_type(*$C$DW$T$60)
    2939                    .dwattr $C$DW$T$63, DW_AT_language(DW_LANG_C)
    2940                    .dwattr $C$DW$T$63, DW_AT_decl_file("C:/ti/ccs1110/ccs/tools/compiler/ti-cgt-msp430_21.6.0.LTS
    2941                    .dwattr $C$DW$T$63, DW_AT_decl_line(0x5b)
    2942                    .dwattr $C$DW$T$63, DW_AT_decl_column(0x13)
    2943            
    2944            $C$DW$T$64      .dwtag  DW_TAG_typedef
    2945                    .dwattr $C$DW$T$64, DW_AT_name("__intptr_t")
    2946                    .dwattr $C$DW$T$64, DW_AT_type(*$C$DW$T$60)
    2947                    .dwattr $C$DW$T$64, DW_AT_language(DW_LANG_C)
    2948                    .dwattr $C$DW$T$64, DW_AT_decl_file("C:/ti/ccs1110/ccs/tools/compiler/ti-cgt-msp430_21.6.0.LTS
    2949                    .dwattr $C$DW$T$64, DW_AT_decl_line(0x53)
    2950                    .dwattr $C$DW$T$64, DW_AT_decl_column(0x19)
    2951            
    2952            $C$DW$T$65      .dwtag  DW_TAG_typedef
    2953                    .dwattr $C$DW$T$65, DW_AT_name("__register_t")
    2954                    .dwattr $C$DW$T$65, DW_AT_type(*$C$DW$T$60)
    2955                    .dwattr $C$DW$T$65, DW_AT_language(DW_LANG_C)
    2956                    .dwattr $C$DW$T$65, DW_AT_decl_file("C:/ti/ccs1110/ccs/tools/compiler/ti-cgt-msp430_21.6.0.LTS
    2957                    .dwattr $C$DW$T$65, DW_AT_decl_line(0x5f)
    2958                    .dwattr $C$DW$T$65, DW_AT_decl_column(0x13)
    2959            
    2960            $C$DW$T$66      .dwtag  DW_TAG_typedef
    2961                    .dwattr $C$DW$T$66, DW_AT_name("__nl_item")
    2962                    .dwattr $C$DW$T$66, DW_AT_type(*$C$DW$T$10)
    2963                    .dwattr $C$DW$T$66, DW_AT_language(DW_LANG_C)
    2964                    .dwattr $C$DW$T$66, DW_AT_decl_file("C:/ti/ccs1110/ccs/tools/compiler/ti-cgt-msp430_21.6.0.LTS
    2965                    .dwattr $C$DW$T$66, DW_AT_decl_line(0x3c)
    2966                    .dwattr $C$DW$T$66, DW_AT_decl_column(0x0e)
MSP430 Assembler PC v21.6.0 Thu Jan 27 17:18:09 2022

Copyright (c) 2003-2018 Texas Instruments Incorporated
C:\Users\d_oti\AppData\Local\Temp\{7C157F18-368C-4A2C-B4B8-F2D54C4F90C9} PAGE   61

    2967            
    2968            $C$DW$T$67      .dwtag  DW_TAG_typedef
    2969                    .dwattr $C$DW$T$67, DW_AT_name("__ptrdiff_t")
    2970                    .dwattr $C$DW$T$67, DW_AT_type(*$C$DW$T$10)
    2971                    .dwattr $C$DW$T$67, DW_AT_language(DW_LANG_C)
    2972                    .dwattr $C$DW$T$67, DW_AT_decl_file("C:/ti/ccs1110/ccs/tools/compiler/ti-cgt-msp430_21.6.0.LTS
    2973                    .dwattr $C$DW$T$67, DW_AT_decl_line(0x5e)
    2974                    .dwattr $C$DW$T$67, DW_AT_decl_column(0x1c)
    2975            
    2976            $C$DW$T$11      .dwtag  DW_TAG_base_type
    2977                    .dwattr $C$DW$T$11, DW_AT_encoding(DW_ATE_unsigned)
    2978                    .dwattr $C$DW$T$11, DW_AT_name("unsigned int")
    2979                    .dwattr $C$DW$T$11, DW_AT_byte_size(0x02)
    2980            
    2981            $C$DW$T$68      .dwtag  DW_TAG_typedef
    2982                    .dwattr $C$DW$T$68, DW_AT_name("___wchar_t")
    2983                    .dwattr $C$DW$T$68, DW_AT_type(*$C$DW$T$11)
    2984                    .dwattr $C$DW$T$68, DW_AT_language(DW_LANG_C)
    2985                    .dwattr $C$DW$T$68, DW_AT_decl_file("C:/ti/ccs1110/ccs/tools/compiler/ti-cgt-msp430_21.6.0.LTS
    2986                    .dwattr $C$DW$T$68, DW_AT_decl_line(0x7d)
    2987                    .dwattr $C$DW$T$68, DW_AT_decl_column(0x1a)
    2988            
    2989            $C$DW$T$69      .dwtag  DW_TAG_volatile_type
    2990                    .dwattr $C$DW$T$69, DW_AT_type(*$C$DW$T$11)
    2991            
    2992            $C$DW$T$70      .dwtag  DW_TAG_typedef
    2993                    .dwattr $C$DW$T$70, DW_AT_name("__size_t")
    2994                    .dwattr $C$DW$T$70, DW_AT_type(*$C$DW$T$11)
    2995                    .dwattr $C$DW$T$70, DW_AT_language(DW_LANG_C)
    2996                    .dwattr $C$DW$T$70, DW_AT_decl_file("C:/ti/ccs1110/ccs/tools/compiler/ti-cgt-msp430_21.6.0.LTS
    2997                    .dwattr $C$DW$T$70, DW_AT_decl_line(0x61)
    2998                    .dwattr $C$DW$T$70, DW_AT_decl_column(0x19)
    2999            
    3000            $C$DW$T$71      .dwtag  DW_TAG_typedef
    3001                    .dwattr $C$DW$T$71, DW_AT_name("__uint16_t")
    3002                    .dwattr $C$DW$T$71, DW_AT_type(*$C$DW$T$11)
    3003                    .dwattr $C$DW$T$71, DW_AT_language(DW_LANG_C)
    3004                    .dwattr $C$DW$T$71, DW_AT_decl_file("C:/ti/ccs1110/ccs/tools/compiler/ti-cgt-msp430_21.6.0.LTS
    3005                    .dwattr $C$DW$T$71, DW_AT_decl_line(0x39)
    3006                    .dwattr $C$DW$T$71, DW_AT_decl_column(0x17)
    3007            
    3008            $C$DW$T$72      .dwtag  DW_TAG_typedef
    3009                    .dwattr $C$DW$T$72, DW_AT_name("__mode_t")
    3010                    .dwattr $C$DW$T$72, DW_AT_type(*$C$DW$T$71)
    3011                    .dwattr $C$DW$T$72, DW_AT_language(DW_LANG_C)
    3012                    .dwattr $C$DW$T$72, DW_AT_decl_file("C:/ti/ccs1110/ccs/tools/compiler/ti-cgt-msp430_21.6.0.LTS
    3013                    .dwattr $C$DW$T$72, DW_AT_decl_line(0x3a)
    3014                    .dwattr $C$DW$T$72, DW_AT_decl_column(0x14)
    3015            
    3016            $C$DW$T$73      .dwtag  DW_TAG_typedef
    3017                    .dwattr $C$DW$T$73, DW_AT_name("__u_register_t")
    3018                    .dwattr $C$DW$T$73, DW_AT_type(*$C$DW$T$71)
    3019                    .dwattr $C$DW$T$73, DW_AT_language(DW_LANG_C)
    3020                    .dwattr $C$DW$T$73, DW_AT_decl_file("C:/ti/ccs1110/ccs/tools/compiler/ti-cgt-msp430_21.6.0.LTS
    3021                    .dwattr $C$DW$T$73, DW_AT_decl_line(0x78)
MSP430 Assembler PC v21.6.0 Thu Jan 27 17:18:09 2022

Copyright (c) 2003-2018 Texas Instruments Incorporated
C:\Users\d_oti\AppData\Local\Temp\{7C157F18-368C-4A2C-B4B8-F2D54C4F90C9} PAGE   62

    3022                    .dwattr $C$DW$T$73, DW_AT_decl_column(0x14)
    3023            
    3024            $C$DW$T$74      .dwtag  DW_TAG_typedef
    3025                    .dwattr $C$DW$T$74, DW_AT_name("__uint_fast16_t")
    3026                    .dwattr $C$DW$T$74, DW_AT_type(*$C$DW$T$71)
    3027                    .dwattr $C$DW$T$74, DW_AT_language(DW_LANG_C)
    3028                    .dwattr $C$DW$T$74, DW_AT_decl_file("C:/ti/ccs1110/ccs/tools/compiler/ti-cgt-msp430_21.6.0.LTS
    3029                    .dwattr $C$DW$T$74, DW_AT_decl_line(0x71)
    3030                    .dwattr $C$DW$T$74, DW_AT_decl_column(0x14)
    3031            
    3032            $C$DW$T$75      .dwtag  DW_TAG_typedef
    3033                    .dwattr $C$DW$T$75, DW_AT_name("__uint_fast8_t")
    3034                    .dwattr $C$DW$T$75, DW_AT_type(*$C$DW$T$71)
    3035                    .dwattr $C$DW$T$75, DW_AT_language(DW_LANG_C)
    3036                    .dwattr $C$DW$T$75, DW_AT_decl_file("C:/ti/ccs1110/ccs/tools/compiler/ti-cgt-msp430_21.6.0.LTS
    3037                    .dwattr $C$DW$T$75, DW_AT_decl_line(0x70)
    3038                    .dwattr $C$DW$T$75, DW_AT_decl_column(0x14)
    3039            
    3040            $C$DW$T$76      .dwtag  DW_TAG_typedef
    3041                    .dwattr $C$DW$T$76, DW_AT_name("__uint_least16_t")
    3042                    .dwattr $C$DW$T$76, DW_AT_type(*$C$DW$T$71)
    3043                    .dwattr $C$DW$T$76, DW_AT_language(DW_LANG_C)
    3044                    .dwattr $C$DW$T$76, DW_AT_decl_file("C:/ti/ccs1110/ccs/tools/compiler/ti-cgt-msp430_21.6.0.LTS
    3045                    .dwattr $C$DW$T$76, DW_AT_decl_line(0x75)
    3046                    .dwattr $C$DW$T$76, DW_AT_decl_column(0x14)
    3047            
    3048            $C$DW$T$77      .dwtag  DW_TAG_typedef
    3049                    .dwattr $C$DW$T$77, DW_AT_name("__char16_t")
    3050                    .dwattr $C$DW$T$77, DW_AT_type(*$C$DW$T$76)
    3051                    .dwattr $C$DW$T$77, DW_AT_language(DW_LANG_C)
    3052                    .dwattr $C$DW$T$77, DW_AT_decl_file("C:/ti/ccs1110/ccs/tools/compiler/ti-cgt-msp430_21.6.0.LTS
    3053                    .dwattr $C$DW$T$77, DW_AT_decl_line(0x71)
    3054                    .dwattr $C$DW$T$77, DW_AT_decl_column(0x1a)
    3055            
    3056            $C$DW$T$78      .dwtag  DW_TAG_typedef
    3057                    .dwattr $C$DW$T$78, DW_AT_name("__uintptr_t")
    3058                    .dwattr $C$DW$T$78, DW_AT_type(*$C$DW$T$71)
    3059                    .dwattr $C$DW$T$78, DW_AT_language(DW_LANG_C)
    3060                    .dwattr $C$DW$T$78, DW_AT_decl_file("C:/ti/ccs1110/ccs/tools/compiler/ti-cgt-msp430_21.6.0.LTS
    3061                    .dwattr $C$DW$T$78, DW_AT_decl_line(0x6d)
    3062                    .dwattr $C$DW$T$78, DW_AT_decl_column(0x14)
    3063            
    3064            $C$DW$T$79      .dwtag  DW_TAG_typedef
    3065                    .dwattr $C$DW$T$79, DW_AT_name("__useconds_t")
    3066                    .dwattr $C$DW$T$79, DW_AT_type(*$C$DW$T$11)
    3067                    .dwattr $C$DW$T$79, DW_AT_language(DW_LANG_C)
    3068                    .dwattr $C$DW$T$79, DW_AT_decl_file("C:/ti/ccs1110/ccs/tools/compiler/ti-cgt-msp430_21.6.0.LTS
    3069                    .dwattr $C$DW$T$79, DW_AT_decl_line(0x4e)
    3070                    .dwattr $C$DW$T$79, DW_AT_decl_column(0x16)
    3071            
    3072            $C$DW$T$80      .dwtag  DW_TAG_typedef
    3073                    .dwattr $C$DW$T$80, DW_AT_name("size_t")
    3074                    .dwattr $C$DW$T$80, DW_AT_type(*$C$DW$T$11)
    3075                    .dwattr $C$DW$T$80, DW_AT_language(DW_LANG_C)
    3076                    .dwattr $C$DW$T$80, DW_AT_decl_file("C:/ti/ccs1110/ccs/tools/compiler/ti-cgt-msp430_21.6.0.LTS
MSP430 Assembler PC v21.6.0 Thu Jan 27 17:18:09 2022

Copyright (c) 2003-2018 Texas Instruments Incorporated
C:\Users\d_oti\AppData\Local\Temp\{7C157F18-368C-4A2C-B4B8-F2D54C4F90C9} PAGE   63

    3077                    .dwattr $C$DW$T$80, DW_AT_decl_line(0x4d)
    3078                    .dwattr $C$DW$T$80, DW_AT_decl_column(0x19)
    3079            
    3080            $C$DW$T$12      .dwtag  DW_TAG_base_type
    3081                    .dwattr $C$DW$T$12, DW_AT_encoding(DW_ATE_signed)
    3082                    .dwattr $C$DW$T$12, DW_AT_name("long")
    3083                    .dwattr $C$DW$T$12, DW_AT_byte_size(0x04)
    3084            
    3085            $C$DW$T$81      .dwtag  DW_TAG_typedef
    3086                    .dwattr $C$DW$T$81, DW_AT_name("__int32_t")
    3087                    .dwattr $C$DW$T$81, DW_AT_type(*$C$DW$T$12)
    3088                    .dwattr $C$DW$T$81, DW_AT_language(DW_LANG_C)
    3089                    .dwattr $C$DW$T$81, DW_AT_decl_file("C:/ti/ccs1110/ccs/tools/compiler/ti-cgt-msp430_21.6.0.LTS
    3090                    .dwattr $C$DW$T$81, DW_AT_decl_line(0x3a)
    3091                    .dwattr $C$DW$T$81, DW_AT_decl_column(0x10)
    3092            
    3093            $C$DW$T$82      .dwtag  DW_TAG_typedef
    3094                    .dwattr $C$DW$T$82, DW_AT_name("__blksize_t")
    3095                    .dwattr $C$DW$T$82, DW_AT_type(*$C$DW$T$81)
    3096                    .dwattr $C$DW$T$82, DW_AT_language(DW_LANG_C)
    3097                    .dwattr $C$DW$T$82, DW_AT_decl_file("C:/ti/ccs1110/ccs/tools/compiler/ti-cgt-msp430_21.6.0.LTS
    3098                    .dwattr $C$DW$T$82, DW_AT_decl_line(0x2f)
    3099                    .dwattr $C$DW$T$82, DW_AT_decl_column(0x13)
    3100            
    3101            $C$DW$T$83      .dwtag  DW_TAG_typedef
    3102                    .dwattr $C$DW$T$83, DW_AT_name("__clockid_t")
    3103                    .dwattr $C$DW$T$83, DW_AT_type(*$C$DW$T$81)
    3104                    .dwattr $C$DW$T$83, DW_AT_language(DW_LANG_C)
    3105                    .dwattr $C$DW$T$83, DW_AT_decl_file("C:/ti/ccs1110/ccs/tools/compiler/ti-cgt-msp430_21.6.0.LTS
    3106                    .dwattr $C$DW$T$83, DW_AT_decl_line(0x31)
    3107                    .dwattr $C$DW$T$83, DW_AT_decl_column(0x13)
    3108            
    3109            $C$DW$T$84      .dwtag  DW_TAG_typedef
    3110                    .dwattr $C$DW$T$84, DW_AT_name("__critical_t")
    3111                    .dwattr $C$DW$T$84, DW_AT_type(*$C$DW$T$81)
    3112                    .dwattr $C$DW$T$84, DW_AT_language(DW_LANG_C)
    3113                    .dwattr $C$DW$T$84, DW_AT_decl_file("C:/ti/ccs1110/ccs/tools/compiler/ti-cgt-msp430_21.6.0.LTS
    3114                    .dwattr $C$DW$T$84, DW_AT_decl_line(0x4b)
    3115                    .dwattr $C$DW$T$84, DW_AT_decl_column(0x13)
    3116            
    3117            $C$DW$T$85      .dwtag  DW_TAG_typedef
    3118                    .dwattr $C$DW$T$85, DW_AT_name("__int_fast32_t")
    3119                    .dwattr $C$DW$T$85, DW_AT_type(*$C$DW$T$81)
    3120                    .dwattr $C$DW$T$85, DW_AT_language(DW_LANG_C)
    3121                    .dwattr $C$DW$T$85, DW_AT_decl_file("C:/ti/ccs1110/ccs/tools/compiler/ti-cgt-msp430_21.6.0.LTS
    3122                    .dwattr $C$DW$T$85, DW_AT_decl_line(0x58)
    3123                    .dwattr $C$DW$T$85, DW_AT_decl_column(0x13)
    3124            
    3125            $C$DW$T$86      .dwtag  DW_TAG_typedef
    3126                    .dwattr $C$DW$T$86, DW_AT_name("__int_least32_t")
    3127                    .dwattr $C$DW$T$86, DW_AT_type(*$C$DW$T$81)
    3128                    .dwattr $C$DW$T$86, DW_AT_language(DW_LANG_C)
    3129                    .dwattr $C$DW$T$86, DW_AT_decl_file("C:/ti/ccs1110/ccs/tools/compiler/ti-cgt-msp430_21.6.0.LTS
    3130                    .dwattr $C$DW$T$86, DW_AT_decl_line(0x5c)
    3131                    .dwattr $C$DW$T$86, DW_AT_decl_column(0x13)
MSP430 Assembler PC v21.6.0 Thu Jan 27 17:18:09 2022

Copyright (c) 2003-2018 Texas Instruments Incorporated
C:\Users\d_oti\AppData\Local\Temp\{7C157F18-368C-4A2C-B4B8-F2D54C4F90C9} PAGE   64

    3132            
    3133            $C$DW$T$87      .dwtag  DW_TAG_typedef
    3134                    .dwattr $C$DW$T$87, DW_AT_name("__intfptr_t")
    3135                    .dwattr $C$DW$T$87, DW_AT_type(*$C$DW$T$81)
    3136                    .dwattr $C$DW$T$87, DW_AT_language(DW_LANG_C)
    3137                    .dwattr $C$DW$T$87, DW_AT_decl_file("C:/ti/ccs1110/ccs/tools/compiler/ti-cgt-msp430_21.6.0.LTS
    3138                    .dwattr $C$DW$T$87, DW_AT_decl_line(0x4e)
    3139                    .dwattr $C$DW$T$87, DW_AT_decl_column(0x13)
    3140            
    3141            $C$DW$T$88      .dwtag  DW_TAG_typedef
    3142                    .dwattr $C$DW$T$88, DW_AT_name("__lwpid_t")
    3143                    .dwattr $C$DW$T$88, DW_AT_type(*$C$DW$T$81)
    3144                    .dwattr $C$DW$T$88, DW_AT_language(DW_LANG_C)
    3145                    .dwattr $C$DW$T$88, DW_AT_decl_file("C:/ti/ccs1110/ccs/tools/compiler/ti-cgt-msp430_21.6.0.LTS
    3146                    .dwattr $C$DW$T$88, DW_AT_decl_line(0x39)
    3147                    .dwattr $C$DW$T$88, DW_AT_decl_column(0x13)
    3148            
    3149            $C$DW$T$89      .dwtag  DW_TAG_typedef
    3150                    .dwattr $C$DW$T$89, DW_AT_name("__pid_t")
    3151                    .dwattr $C$DW$T$89, DW_AT_type(*$C$DW$T$81)
    3152                    .dwattr $C$DW$T$89, DW_AT_language(DW_LANG_C)
    3153                    .dwattr $C$DW$T$89, DW_AT_decl_file("C:/ti/ccs1110/ccs/tools/compiler/ti-cgt-msp430_21.6.0.LTS
    3154                    .dwattr $C$DW$T$89, DW_AT_decl_line(0x40)
    3155                    .dwattr $C$DW$T$89, DW_AT_decl_column(0x13)
    3156            
    3157            $C$DW$T$90      .dwtag  DW_TAG_typedef
    3158                    .dwattr $C$DW$T$90, DW_AT_name("__segsz_t")
    3159                    .dwattr $C$DW$T$90, DW_AT_type(*$C$DW$T$81)
    3160                    .dwattr $C$DW$T$90, DW_AT_language(DW_LANG_C)
    3161                    .dwattr $C$DW$T$90, DW_AT_decl_file("C:/ti/ccs1110/ccs/tools/compiler/ti-cgt-msp430_21.6.0.LTS
    3162                    .dwattr $C$DW$T$90, DW_AT_decl_line(0x60)
    3163                    .dwattr $C$DW$T$90, DW_AT_decl_column(0x13)
    3164            
    3165            $C$DW$T$91      .dwtag  DW_TAG_typedef
    3166                    .dwattr $C$DW$T$91, DW_AT_name("__ssize_t")
    3167                    .dwattr $C$DW$T$91, DW_AT_type(*$C$DW$T$81)
    3168                    .dwattr $C$DW$T$91, DW_AT_language(DW_LANG_C)
    3169                    .dwattr $C$DW$T$91, DW_AT_decl_file("C:/ti/ccs1110/ccs/tools/compiler/ti-cgt-msp430_21.6.0.LTS
    3170                    .dwattr $C$DW$T$91, DW_AT_decl_line(0x62)
    3171                    .dwattr $C$DW$T$91, DW_AT_decl_column(0x13)
    3172            
    3173            $C$DW$T$92      .dwtag  DW_TAG_typedef
    3174                    .dwattr $C$DW$T$92, DW_AT_name("__key_t")
    3175                    .dwattr $C$DW$T$92, DW_AT_type(*$C$DW$T$12)
    3176                    .dwattr $C$DW$T$92, DW_AT_language(DW_LANG_C)
    3177                    .dwattr $C$DW$T$92, DW_AT_decl_file("C:/ti/ccs1110/ccs/tools/compiler/ti-cgt-msp430_21.6.0.LTS
    3178                    .dwattr $C$DW$T$92, DW_AT_decl_line(0x38)
    3179                    .dwattr $C$DW$T$92, DW_AT_decl_column(0x0f)
    3180            
    3181            $C$DW$T$93      .dwtag  DW_TAG_typedef
    3182                    .dwattr $C$DW$T$93, DW_AT_name("__suseconds_t")
    3183                    .dwattr $C$DW$T$93, DW_AT_type(*$C$DW$T$12)
    3184                    .dwattr $C$DW$T$93, DW_AT_language(DW_LANG_C)
    3185                    .dwattr $C$DW$T$93, DW_AT_decl_file("C:/ti/ccs1110/ccs/tools/compiler/ti-cgt-msp430_21.6.0.LTS
    3186                    .dwattr $C$DW$T$93, DW_AT_decl_line(0x4a)
MSP430 Assembler PC v21.6.0 Thu Jan 27 17:18:09 2022

Copyright (c) 2003-2018 Texas Instruments Incorporated
C:\Users\d_oti\AppData\Local\Temp\{7C157F18-368C-4A2C-B4B8-F2D54C4F90C9} PAGE   65

    3187                    .dwattr $C$DW$T$93, DW_AT_decl_column(0x0f)
    3188            
    3189            $C$DW$T$94      .dwtag  DW_TAG_typedef
    3190                    .dwattr $C$DW$T$94, DW_AT_name("_off_t")
    3191                    .dwattr $C$DW$T$94, DW_AT_type(*$C$DW$T$12)
    3192                    .dwattr $C$DW$T$94, DW_AT_language(DW_LANG_C)
    3193                    .dwattr $C$DW$T$94, DW_AT_decl_file("C:/ti/ccs1110/ccs/tools/compiler/ti-cgt-msp430_21.6.0.LTS
    3194                    .dwattr $C$DW$T$94, DW_AT_decl_line(0x8d)
    3195                    .dwattr $C$DW$T$94, DW_AT_decl_column(0x12)
    3196            
    3197            $C$DW$T$95      .dwtag  DW_TAG_typedef
    3198                    .dwattr $C$DW$T$95, DW_AT_name("__off_t")
    3199                    .dwattr $C$DW$T$95, DW_AT_type(*$C$DW$T$94)
    3200                    .dwattr $C$DW$T$95, DW_AT_language(DW_LANG_C)
    3201                    .dwattr $C$DW$T$95, DW_AT_decl_file("C:/ti/ccs1110/ccs/tools/compiler/ti-cgt-msp430_21.6.0.LTS
    3202                    .dwattr $C$DW$T$95, DW_AT_decl_line(0x3e)
    3203                    .dwattr $C$DW$T$95, DW_AT_decl_column(0x18)
    3204            
    3205            $C$DW$T$96      .dwtag  DW_TAG_typedef
    3206                    .dwattr $C$DW$T$96, DW_AT_name("fpos_t")
    3207                    .dwattr $C$DW$T$96, DW_AT_type(*$C$DW$T$12)
    3208                    .dwattr $C$DW$T$96, DW_AT_language(DW_LANG_C)
    3209                    .dwattr $C$DW$T$96, DW_AT_decl_file("C:/ti/ccs1110/ccs/tools/compiler/ti-cgt-msp430_21.6.0.LTS
    3210                    .dwattr $C$DW$T$96, DW_AT_decl_line(0x6b)
    3211                    .dwattr $C$DW$T$96, DW_AT_decl_column(0x0e)
    3212            
    3213            $C$DW$T$97      .dwtag  DW_TAG_typedef
    3214                    .dwattr $C$DW$T$97, DW_AT_name("off_t")
    3215                    .dwattr $C$DW$T$97, DW_AT_type(*$C$DW$T$12)
    3216                    .dwattr $C$DW$T$97, DW_AT_language(DW_LANG_C)
    3217                    .dwattr $C$DW$T$97, DW_AT_decl_file("C:/ti/ccs1110/ccs/tools/compiler/ti-cgt-msp430_21.6.0.LTS
    3218                    .dwattr $C$DW$T$97, DW_AT_decl_line(0x74)
    3219                    .dwattr $C$DW$T$97, DW_AT_decl_column(0x0e)
    3220            
    3221            $C$DW$T$13      .dwtag  DW_TAG_base_type
    3222                    .dwattr $C$DW$T$13, DW_AT_encoding(DW_ATE_unsigned)
    3223                    .dwattr $C$DW$T$13, DW_AT_name("unsigned long")
    3224                    .dwattr $C$DW$T$13, DW_AT_byte_size(0x04)
    3225            
    3226            $C$DW$T$98      .dwtag  DW_TAG_typedef
    3227                    .dwattr $C$DW$T$98, DW_AT_name("__uint32_t")
    3228                    .dwattr $C$DW$T$98, DW_AT_type(*$C$DW$T$13)
    3229                    .dwattr $C$DW$T$98, DW_AT_language(DW_LANG_C)
    3230                    .dwattr $C$DW$T$98, DW_AT_decl_file("C:/ti/ccs1110/ccs/tools/compiler/ti-cgt-msp430_21.6.0.LTS
    3231                    .dwattr $C$DW$T$98, DW_AT_decl_line(0x3b)
    3232                    .dwattr $C$DW$T$98, DW_AT_decl_column(0x18)
    3233            
    3234            $C$DW$T$99      .dwtag  DW_TAG_typedef
    3235                    .dwattr $C$DW$T$99, DW_AT_name("__clock_t")
    3236                    .dwattr $C$DW$T$99, DW_AT_type(*$C$DW$T$98)
    3237                    .dwattr $C$DW$T$99, DW_AT_language(DW_LANG_C)
    3238                    .dwattr $C$DW$T$99, DW_AT_decl_file("C:/ti/ccs1110/ccs/tools/compiler/ti-cgt-msp430_21.6.0.LTS
    3239                    .dwattr $C$DW$T$99, DW_AT_decl_line(0x4a)
    3240                    .dwattr $C$DW$T$99, DW_AT_decl_column(0x14)
    3241            
MSP430 Assembler PC v21.6.0 Thu Jan 27 17:18:09 2022

Copyright (c) 2003-2018 Texas Instruments Incorporated
C:\Users\d_oti\AppData\Local\Temp\{7C157F18-368C-4A2C-B4B8-F2D54C4F90C9} PAGE   66

    3242            $C$DW$T$100     .dwtag  DW_TAG_typedef
    3243                    .dwattr $C$DW$T$100, DW_AT_name("__fflags_t")
    3244                    .dwattr $C$DW$T$100, DW_AT_type(*$C$DW$T$98)
    3245                    .dwattr $C$DW$T$100, DW_AT_language(DW_LANG_C)
    3246                    .dwattr $C$DW$T$100, DW_AT_decl_file("C:/ti/ccs1110/ccs/tools/compiler/ti-cgt-msp430_21.6.0.LT
    3247                    .dwattr $C$DW$T$100, DW_AT_decl_line(0x32)
    3248                    .dwattr $C$DW$T$100, DW_AT_decl_column(0x14)
    3249            
    3250            $C$DW$T$101     .dwtag  DW_TAG_typedef
    3251                    .dwattr $C$DW$T$101, DW_AT_name("__fixpt_t")
    3252                    .dwattr $C$DW$T$101, DW_AT_type(*$C$DW$T$98)
    3253                    .dwattr $C$DW$T$101, DW_AT_language(DW_LANG_C)
    3254                    .dwattr $C$DW$T$101, DW_AT_decl_file("C:/ti/ccs1110/ccs/tools/compiler/ti-cgt-msp430_21.6.0.LT
    3255                    .dwattr $C$DW$T$101, DW_AT_decl_line(0x81)
    3256                    .dwattr $C$DW$T$101, DW_AT_decl_column(0x14)
    3257            
    3258            $C$DW$T$102     .dwtag  DW_TAG_typedef
    3259                    .dwattr $C$DW$T$102, DW_AT_name("__gid_t")
    3260                    .dwattr $C$DW$T$102, DW_AT_type(*$C$DW$T$98)
    3261                    .dwattr $C$DW$T$102, DW_AT_language(DW_LANG_C)
    3262                    .dwattr $C$DW$T$102, DW_AT_decl_file("C:/ti/ccs1110/ccs/tools/compiler/ti-cgt-msp430_21.6.0.LT
    3263                    .dwattr $C$DW$T$102, DW_AT_decl_line(0x35)
    3264                    .dwattr $C$DW$T$102, DW_AT_decl_column(0x14)
    3265            
    3266            $C$DW$T$103     .dwtag  DW_TAG_typedef
    3267                    .dwattr $C$DW$T$103, DW_AT_name("__socklen_t")
    3268                    .dwattr $C$DW$T$103, DW_AT_type(*$C$DW$T$98)
    3269                    .dwattr $C$DW$T$103, DW_AT_language(DW_LANG_C)
    3270                    .dwattr $C$DW$T$103, DW_AT_decl_file("C:/ti/ccs1110/ccs/tools/compiler/ti-cgt-msp430_21.6.0.LT
    3271                    .dwattr $C$DW$T$103, DW_AT_decl_line(0x49)
    3272                    .dwattr $C$DW$T$103, DW_AT_decl_column(0x14)
    3273            
    3274            $C$DW$T$104     .dwtag  DW_TAG_typedef
    3275                    .dwattr $C$DW$T$104, DW_AT_name("__time_t")
    3276                    .dwattr $C$DW$T$104, DW_AT_type(*$C$DW$T$98)
    3277                    .dwattr $C$DW$T$104, DW_AT_language(DW_LANG_C)
    3278                    .dwattr $C$DW$T$104, DW_AT_decl_file("C:/ti/ccs1110/ccs/tools/compiler/ti-cgt-msp430_21.6.0.LT
    3279                    .dwattr $C$DW$T$104, DW_AT_decl_line(0x66)
    3280                    .dwattr $C$DW$T$104, DW_AT_decl_column(0x19)
    3281            
    3282            $C$DW$T$105     .dwtag  DW_TAG_typedef
    3283                    .dwattr $C$DW$T$105, DW_AT_name("__uid_t")
    3284                    .dwattr $C$DW$T$105, DW_AT_type(*$C$DW$T$98)
    3285                    .dwattr $C$DW$T$105, DW_AT_language(DW_LANG_C)
    3286                    .dwattr $C$DW$T$105, DW_AT_decl_file("C:/ti/ccs1110/ccs/tools/compiler/ti-cgt-msp430_21.6.0.LT
    3287                    .dwattr $C$DW$T$105, DW_AT_decl_line(0x4d)
    3288                    .dwattr $C$DW$T$105, DW_AT_decl_column(0x14)
    3289            
    3290            $C$DW$T$106     .dwtag  DW_TAG_typedef
    3291                    .dwattr $C$DW$T$106, DW_AT_name("__uint_fast32_t")
    3292                    .dwattr $C$DW$T$106, DW_AT_type(*$C$DW$T$98)
    3293                    .dwattr $C$DW$T$106, DW_AT_language(DW_LANG_C)
    3294                    .dwattr $C$DW$T$106, DW_AT_decl_file("C:/ti/ccs1110/ccs/tools/compiler/ti-cgt-msp430_21.6.0.LT
    3295                    .dwattr $C$DW$T$106, DW_AT_decl_line(0x72)
    3296                    .dwattr $C$DW$T$106, DW_AT_decl_column(0x14)
MSP430 Assembler PC v21.6.0 Thu Jan 27 17:18:09 2022

Copyright (c) 2003-2018 Texas Instruments Incorporated
C:\Users\d_oti\AppData\Local\Temp\{7C157F18-368C-4A2C-B4B8-F2D54C4F90C9} PAGE   67

    3297            
    3298            $C$DW$T$107     .dwtag  DW_TAG_typedef
    3299                    .dwattr $C$DW$T$107, DW_AT_name("__uint_least32_t")
